(i__main__
NeuralNet
p0
(dp1
S'points'
p2
(lp3
F0.04634832213924277
aF0.06791801479247271
asS'epochs'
p4
(lp5
I0
aI1
asS'errorsO'
p6
(lp7
F-0.04827756011416162
aF-0.14391504394054389
aF-0.14344177931227428
aF0.1480233200971554
asS'errorsH'
p8
(lp9
F-0.016471503419160885
aF0.006091367078139445
aF-0.03688909973351784
aF-0.014777468459195024
aF-0.018555186977941545
aF-0.0
asS'errorsI'
p10
(lp11
F-0.008572334073318129
aF-0.009161356799103326
aF-0.0
asS'weightsH'
p12
(lp13
(lp14
F-0.49465022693142296
aF0.1920079075071091
aF0.2186111645224081
aF-0.2803632211961653
aa(lp15
F-0.37772128423422563
aF0.41384904594995237
aF-0.5225671956471647
aF-0.024829639673308396
aa(lp16
F-0.11595817404939283
aF0.49722803839780694
aF0.4989450545675819
aF-0.04953977724560773
aa(lp17
F-0.3123067538207858
aF0.399551061988228
aF0.03168668011673308
aF-0.11491100167999381
aa(lp18
F0.17140489602368753
aF-0.16610888363297938
aF0.15971912716093845
aF-0.45059033685407474
aa(lp19
F-0.33520034323664044
aF0.14795915069664245
aF0.15645111602873907
aF-0.005544024617226702
aasS'weightsI'
p20
(lp21
(lp22
F0.7475503657783271
aF0.41410590355702487
aF0.08890097713544565
aF0.6126048981882233
aF0.8417575109057881
aF0.826274431815932
aa(lp23
F0.5834874046151618
aF0.6906853566536617
aF0.37840113435820155
aF0.7469959066615457
aF0.6253779592271963
aF0.6984242952093341
aa(lp24
F0.4850208481597269
aF0.13056006206408177
aF-0.26204586385715123
aF0.3222520087871931
aF-0.04892944172366952
aF0.9843010715852923
aasS'nodesO'
p25
(lp26
F0.2544724762125751
aF0.7297685097509446
aF0.5954833914721093
aF0.34456928237219603
asS'nodesH'
p27
(lp28
F0.7177931385768686
aF0.6212546674909463
aF0.4736646428864229
aF0.6848364049165663
aF0.60968259087672
aF1.0
asS'nodesI'
p29
(lp30
F0.34724
aF0.32036
aF1.0
asb.