(i__main__
NeuralNet
p0
(dp1
S'points'
p2
(lp3
F0.04634832213924277
aF0.06791801479247271
aF0.03964158150068789
aF0.03115502728740348
aF0.02885454662866673
aF0.027993675609924232
aF0.02763360199978897
aF0.027478977302754906
aF0.027416164892391414
aF0.027396980234188944
aF0.027399720186082117
asS'epochs'
p4
(lp5
I0
aI1
aI2
aI3
aI4
aI5
aI6
aI7
aI8
aI9
aI10
asS'errorsO'
p6
(lp7
F-0.023081218667560095
aF-0.04711630798702091
aF-0.06959979156973076
aF0.139380245879654
asS'errorsH'
p8
(lp9
F-0.004695146388500948
aF0.012415393245420224
aF-0.011079672307654246
aF0.0005727524141637897
aF-0.008703454533317008
aF0.0
asS'errorsI'
p10
(lp11
F-0.0009854117918192886
aF-0.0002288984884797401
aF0.0
asS'weightsH'
p12
(lp13
(lp14
F-0.614786937844786
aF-0.27981573041047936
aF-0.08233312492418299
aF-0.39282374127816355
aa(lp15
F-0.3995656138872383
aF-0.05301019689806788
aF-0.8414997971192334
aF-0.10980971792789855
aa(lp16
F-0.19166428404327276
aF0.1418185753341706
aF0.35612985688763144
aF-0.12089381195684064
aa(lp17
F-0.3647899014920514
aF-0.08798190274975283
aF-0.3017333206465845
aF-0.20857115386825997
aa(lp18
F0.1556867893076627
aF-0.5798252929043622
aF-0.2108560317817022
aF-0.5287543756056906
aa(lp19
F-0.6838141572076213
aF-0.5134948409892865
aF-0.0025755153542812437
aF-0.21356737926858932
aasS'weightsI'
p20
(lp21
(lp22
F0.7593512324864687
aF0.520812501114812
aF0.05643659440232159
aF0.6499999423885652
aF0.8022381575301374
aF0.826274431815932
aa(lp23
F0.4893341949601877
aF0.7421949048956591
aF0.16513326469944256
aF0.6983769669726204
aF0.7499095867007028
aF0.6984242952093341
aa(lp24
F0.5540772352917172
aF0.11639031896500815
aF-0.3337780191601547
aF0.3207752382229977
aF-0.02664833380375435
aF0.9843010715852923
aasS'nodesO'
p25
(lp26
F0.16639880516787336
aF0.25077171059933134
aF0.319903218732451
aF0.2436329501360713
asS'nodesH'
p27
(lp28
F0.7261332319933674
aF0.630296300180967
aF0.43538248637004884
aF0.6835518708079679
aF0.6208662161056541
aF1.0
asS'nodesI'
p29
(lp30
F0.34724
aF0.32036
aF1.0
asb.