(i__main__
NeuralNet
p0
(dp1
S'points'
p2
(lp3
F0.04634832213924277
aF0.06791801479247271
aF0.03964158150068789
aF0.03115502728740348
aF0.02885454662866673
aF0.027993675609924232
aF0.02763360199978897
aF0.027478977302754906
aF0.027416164892391414
aF0.027396980234188944
aF0.027399720186082117
aF0.02741414957606023
aF0.02743526419455399
aF0.027460558978066006
aF0.02748877488564772
aF0.027519298620208344
aF0.027551863471999644
aF0.027586395087819002
aF0.027622929786617543
aF0.027661570442270782
aF0.027702462356238574
aF0.027745779982301058
aF0.027791719617121367
aF0.02784049538253283
aF0.027892337006047246
aF0.02794748854773596
aF0.028006207574318254
aF0.028068764476015726
aF0.028135441729046258
aF0.028206532965461103
aF0.02828234174440439
aF0.028363179937735832
aF0.028449365656355138
aF0.028541220656990208
aF0.02863906718682993
aF0.02874322424868416
aF0.028854003305319637
aF0.02897170349060217
aF0.029096606458332203
aF0.029228971076655827
aF0.02936902826339762
aF0.02951697634859953
aF0.029672977433446924
aF0.02983715527336551
aF0.030009595227283557
aF0.03019034676335363
aF0.030379428875113156
aF0.03057683853099956
aF0.030782561959034876
aF0.030996588181937842
aF0.031218923811920703
aF0.03144960775258856
aF0.0316887242089287
aF0.0319364123394666
aF0.03219287103797757
aF0.032458357709880516
aF0.03273318047278352
aF0.033017683886321904
aF0.03331222900480382
aF0.03361716914547546
aF0.033932823191280576
aF0.03425944844917803
aF0.03459721505336527
aF0.03494618366504321
aF0.03530628783191288
aF0.03567732189947897
aF0.036058934879045317
aF0.036450630228562264
aF0.03685177112923627
aF0.0372615905619495
aF0.03767920530664432
aF0.03810363289759013
aF0.038533810554092385
aF0.03896861515320015
aF0.039406883401580654
aF0.03984743148255967
aF0.0402890735880888
aF0.0407306388832122
aF0.04117098658401062
aF0.04160901895281035
aF0.04204369212254977
aF0.04247402475325946
aF0.042899104596806556
aF0.043318093101720155
aF0.04373022822927398
aF0.044134825676852917
aF0.04453127871711178
aF0.044919056863794486
aF0.04529770356954276
aF0.04566683314963704
aF0.046026127110199246
aF0.04637533004151503
aF0.04671424521805404
aF0.04704273002749927
aF0.04736069133238022
aF0.04766808085027229
aF0.04796489062233183
aF0.048251148625374024
aF0.04852691456985421
aF0.048792275914978415
aF0.04904734412267268
aF0.049292251164176
aF0.0495271462864451
aF0.049752193040227495
aF0.04996756656741344
aF0.05017345114196717
aF0.050370037956230226
aF0.05055752314253748
aF0.050736106018795295
aF0.05090598754581766
aF0.051067368983721446
aF0.05122045073446903
aF0.05136543135764603
aF0.051502506746725504
aF0.051631869453351485
aF0.05175370814753934
aF0.05186820720210712
aF0.05197554639011286
aF0.05207590068453493
aF0.05216944014991527
aF0.052256329916156384
aF0.05233673022512668
aF0.052410796541182456
aF0.0524786797171503
aF0.05254052620773895
aF0.05259647832275682
aF0.05264667451290948
aF0.052691249681333666
aF0.05273033551440126
aF0.05276406082569712
aF0.05279255190743503
aF0.05281593288394326
aF0.05283432606221217
aF0.05284785227485946
aF0.05285663121124714
aF0.052860781732855154
aF0.05286042216940838
aF0.052855670592649305
aF0.05284664506505541
aF0.052833463861219815
aF0.05281624566003976
aF0.052795109706292816
aF0.05277017594062232
aF0.05274156509739179
aF0.052709398770311715
aF0.05267379944616571
aF0.05263489050738658
aF0.05259279620461899
aF0.05254764160078214
aF0.052499552488471754
aF0.0524486552828409
aF0.05239507689234435
aF0.05233894456993379
aF0.052280385747435154
aF0.05221952785593717
aF0.052156498135057135
aF0.05209142343393822
aF0.052024430006770234
aF0.051955643305519106
aF0.051885187772403876
aF0.05181318663447935
aF0.051739761702475504
aF0.05166503317581909
aF0.051589119455526716
aF0.05151213696640926
aF0.05143419998978859
aF0.05135542050768845
aF0.05127590805923296
aF0.05119576960977472
aF0.05111510943308034
aF0.05103402900671746
aF0.05095262692064052
aF0.05087099879882594
aF0.05078923723369635
aF0.05070743173297134
aF0.05062566867850569
aF0.050544031296606236
aF0.05046259963927452
aF0.05038145057578132
aF0.05030065779395627
aF0.05022029181055784
aF0.050140419990084784
aF0.05006110657138433
aF0.049982412701423964
aF0.049904396475598675
aF0.04982711298396076
aF0.04975061436278005
aF0.04967494985085408
aF0.04960016585001817
aF0.049526305989323165
aF0.04945341119237458
aF0.04938151974735346
aF0.0493106673792629
aF0.04924088732397404
aF0.04917221040367031
aF0.04910466510331571
aF0.04903827764780024
aF0.048973072079442084
aF0.04890907033555238
aF0.04884629232579457
aF0.048784756009093155
aF0.048724477469874156
aF0.0486654709934392
aF0.04860774914030133
aF0.04855132281932667
aF0.04849620135955325
aF0.048442392580568275
aF0.04838990286135227
aF0.048338737207506685
aF0.04828889931680296
aF0.048240391643000265
aF0.04819321545789698
aF0.04814737091158736
aF0.048102857090908696
aF0.048059672076073444
aF0.048017812995487234
aF0.04797727607876373
aF0.04793805670795111
aF0.04790014946699188
aF0.04786354818944274
aF0.047828246004485035
aF0.04779423538125752
aF0.04776150817154976
aF0.047730055650893444
aF0.047699868558091135
aF0.04767093713322465
aF0.04764325115418371
aF0.04761679997175757
aF0.04759157254333173
aF0.04756755746523213
aF0.04754474300375763
aF0.04752311712494277
aF0.04750266752309104
aF0.04748338164811637
aF0.04746524673173464
aF0.04744824981253863
aF0.04743237775999595
aF0.04741761729740344
aF0.047403955023832434
aF0.04739137743509721
aF0.047379870943779274
aF0.04736942189833649
aF0.04736001660132904
aF0.04735164132678612
aF0.04734428233674516
aF0.04733792589698689
aF0.047332558291992996
aF0.047328165839148555
aF0.04732473490221527
aF0.04732225190409629
aF0.04732070333891426
aF0.04732007578342513
aF0.047320355907785994
aF0.04732153048569738
aF0.04732358640394027
aF0.04732651067132352
aF0.047330290427062216
aF0.047334912948602995
aF0.047340365658911476
aF0.0473466361332429
aF0.04735371210540715
aF0.04736158147354586
aF0.04737023230543719
aF0.04737965284334174
aF0.04738983150840601
aF0.047400756904636354
aF0.04741241782245611
aF0.04742480324186358
aF0.04743790233519994
aF0.04745170446954282
aF0.04746619920873727
aF0.04748137631507761
aF0.04749722575065201
aF0.047513737678362096
aF0.04753090246262997
aF0.04754871066980397
aF0.047567153068274796
aF0.04758622062831339
aF0.04760590452164279
aF0.047626196120752695
aF0.04764708699796928
aF0.04766856892429083
aF0.0476906338679983
aF0.04771327399305163
aF0.04773648165728237
aF0.04776024941039173
aF0.04778456999176237
aF0.047809436328096436
aF0.047834841530886144
aF0.047860778893726
aF0.04788724188947742
aF0.04791422416729213
aF0.0479417195495031
aF0.04796972202839275
aF0.0479982257628433
aF0.04802722507487965
aF0.04805671444611077
aF0.048086688514077526
aF0.0481171420685129
aF0.048148070047522945
aF0.04817946753369351
aF0.04821132975013084
aF0.04824365205644048
aF0.04827642994465114
aF0.04830965903509057
aF0.04834333507221611
aF0.04837745392040739
aF0.04841201155972806
aF0.04844700408165539
aF0.048482427684790476
aF0.048518278670546366
aF0.04855455343882313
aF0.048591248483672904
aF0.04862836038895739
aF0.04866588582400406
aF0.04870382153926198
aF0.048742164361963
aF0.04878091119179098
aF0.04882005899655997
aF0.04885960480790906
aF0.04889954571701068
aF0.04893987887029956
aF0.04898060146522346
aF0.049021710746016106
aF0.04906320399949792
aF0.04910507855090298
aF0.04914733175973678
aF0.04918996101566532
aF0.04923296373443637
aF0.04927633735383628
aF0.049320079329682145
aF0.04936418713185041
aF0.04940865824034462
aF0.04945349014140192
aF0.04949868032363929
aF0.04954422627424058
aF0.049590125475185085
aF0.0496363753995188
aF0.049682973507666844
aF0.04972991724379082
aF0.04977720403218762
aF0.04982483127373381
aF0.04987279634237212
aF0.049921096581643586
aF0.04996972930126285
aF0.05001869177373755
aF0.05006798123103391
aF0.05011759486128369
aF0.05016752980553757
aF0.050217783154561546
aF0.05026835194567777
aF0.05031923315964887
aF0.050370423717606125
aF0.05042192047802047
aF0.050473720233718454
aF0.050525819708938845
aF0.05057821555643466
aF0.05063090435461572
aF0.05068388260473572
aF0.0507371467281198
aF0.05079069306343591
aF0.050844517864007684
aF0.05089861729516865
aF0.050952987431659706
aF0.051007624255067704
aF0.05106252365130604
aF0.0511176814081381
aF0.051173093212740946
aF0.0512287546493134
aF0.051284661196724986
aF0.05134080822620833
aF0.05139719099909488
aF0.05145380466459288
aF0.05151064425761078
aF0.05156770469662288
aF0.051624980781583084
aF0.05168246719188138
aF0.051740158484347334
aF0.05179804909130319
aF0.05185613331866113
aF0.05191440534407335
aF0.051972859215129355
aF0.05203148884760763
aF0.05209028802377717
aF0.05214925039075466
aF0.05220836945891697
aF0.05226763860036929
aF0.05232705104747359
aF0.05238659989143671
aF0.052446278080959974
aF0.052506078420953985
aF0.0525659935713182
aF0.05262601604579062
aF0.05268613821086465
aF0.05274635228478217
aF0.052806650336598863
aF0.05286702428532883
aF0.05292746589916739
aF0.052987966794798474
aF0.053048518436785895
aF0.05310911213705347
aF0.05316973905445569
aF0.05323039019444252
aF0.05329105640882142
aF0.053351728395618685
aF0.05341239669904393
aF0.05347305170956213
aF0.053533683664072844
aF0.053594282646203875
aF0.053654838586721126
aF0.0537153412640561
aF0.053775780304957554
aF0.05383614518526845
aF0.05389642523083306
aF0.053956609618535004
aF0.05401668737747414
aF0.054076647390279606
aF0.05413647839456792
aF0.05419616898454588
aF0.05425570761276294
aF0.05431508259201532
aF0.05437428209740571
aF0.05443329416856156
aF0.054492106712014106
aF0.0545507075037404
aF0.05460908419187458
aF0.054667224299585135
aF0.054725115228126245
aF0.054782744260060974
aF0.05484009856266178
aF0.05489716519148827
aF0.054953931094144134
aF0.05501038311421563
aF0.05506650799539215
aF0.05512229238577017
aF0.05517772284234128
aF0.05523278583566598
aF0.055287467754731
aF0.055341754911993626
aF0.055395633548609206
aF0.05544908983984452
aF0.05550210990067429
aF0.05555467979155961
aF0.05560678552440826
aF0.05565841306871225
aF0.05570954835786512
aF0.055760177295650845
aF0.05581028576290593
aF0.055859859624348154
aF0.05590888473557216
aF0.05595734695020245
aF0.056005232127204194
aF0.056052526138345625
aF0.05609921487580494
aF0.056145284259918125
aF0.05619072024706129
aF0.05623550883766056
aF0.056279636084322945
aF0.05632308810008066
aF0.05636585106674246
aF0.0564079112433423
aF0.05644925497467783
aF0.05648986869992975
aF0.05652973896135392
aF0.056568852413034255
aF0.05660719582968936
aF0.05664475611552076
aF0.05668152031309322
aF0.05671747561223567
aF0.05675260935895284
aF0.05678690906433426
aF0.056820362413451335
aF0.05685295727422815
aF0.05688468170627681
aF0.05691552396968172
aF0.056945472533723854
aF0.05697451608552923
aF0.05700264353863144
aF0.057029844041434165
aF0.057056106985561
aF0.05708142201407897
aF0.05710577902958543
aF0.05712916820214202
aF0.057151579977044814
aF0.05717300508242002
aF0.057193434536626044
aF0.0572128596554565
aF0.057231272059129125
aF0.05724866367904703
aF0.05726502676432178
aF0.05728035388804865
aF0.057294637953317885
aF0.057307872198955896
aF0.05732005020498403
aF0.05733116589778203
aF0.0573412135549516
aF0.057350187809866615
aF0.057358083655901705
aF0.05736489645033283
aF0.05737062191789911
aF0.05737525615402173
aF0.05737879562766988
aF0.05738123718387007
aF0.057382578045852
aF0.057382815816826874
aF0.057381948481391915
aF0.05737997440656108
aF0.05737689234241394
aF0.05737270142236592
aF0.05736740116305345
aF0.057360991463837656
aF0.05735347260592085
aF0.057344845251081404
aF0.057335110440026746
aF0.0573242695903635
aF0.057312324494191734
aF0.05729927731532361
aF0.05728513058613128
aF0.05726988720402901
aF0.05725355042759461
aF0.05723612387233558
aF0.057217611506108115
aF0.057198017644194285
aF0.05717734694404657
aF0.05715560439970736
aF0.05713279533591524
aF0.057108925401901225
aF0.057084000564893336
aF0.05705802710333313
aF0.05703101159981958
aF0.05700296093378962
aF0.05697388227394863
aF0.05694378307046056
aF0.05691267104691629
aF0.05688055419208475
aF0.056847440751467714
aF0.056813339218667866
aF0.05677825832658431
aF0.05674220703845123
aF0.05670519453873021
aF0.056667230223876326
aF0.056628323692986066
aF0.056588484738345254
aF0.056547723335891725
aF0.056506049635603746
aF0.05646347395183353
aF0.05642000675359497
aF0.056375658654824884
aF0.056330440404628035
aF0.0562843628775218
aF0.056237437063693364
aF0.05618967405928429
aF0.0561410850567151
aF0.05609168133506096
aF0.05604147425049608
aF0.055990475226814426
aF0.05593869574604113
aF0.05588614733914585
aF0.055832841576871114
aF0.05577879006068415
aF0.05572400441386332
aF0.055668496272731356
aF0.05561227727804332
aF0.05555535906653815
aF0.05549775326266598
aF0.055439471470492586
aF0.05538052526579963
aF0.05532092618837533
aF0.05526068573451384
aF0.055199815349722084
aF0.055138326421645595
aF0.05507623027321182
aF0.05501353815600375
aF0.054950261243863034
aF0.054886410626726494
aF0.054821997304704724
aF0.05475703218239662
aF0.05469152606345272
aF0.05462548964537908
aF0.05455893351459466
aF0.05449186814172939
aF0.05442430387717806
aF0.05435625094689714
aF0.05428771944845401
aF0.054218719347323016
aF0.05414926047342827
aF0.05407935251793196
aF0.05400900503026579
aF0.05393822741540285
aF0.05386702893137171
aF0.05379541868700159
aF0.053723405639902404
aF0.05365099859467399
aF0.0535782062013397
aF0.05350503695400113
aF0.05343149918970949
aF0.05335760108755012
aF0.0532833506679319
aF0.05320875579208218
aF0.05313382416173434
aF0.05305856331901118
aF0.05298298064649361
aF0.05290708336746654
aF0.052830878546343225
aF0.052754373089255874
aF0.052677573744810864
aF0.05260048710499772
aF0.05252311960625064
aF0.05244547753065497
aF0.05236756700728762
aF0.05228939401369331
aF0.05221096437748356
aF0.05213228377805681
aF0.05205335774842695
aF0.05197419167716532
aF0.05189479081043521
aF0.051815160254125345
aF0.05173530497607067
aF0.051655229808353534
aF0.051574939449681424
aF0.05149443846783458
aF0.05141373130217799
aF0.05133282226623275
aF0.05125171555029661
aF0.05117041522411761
aF0.05108892523960492
aF0.05100724943357736
aF0.05092539153054593
aF0.0508433551455205
aF0.050761143786839234
aF0.05067876085901549
aF0.05059620966559536
aF0.050513493412026295
aF0.050430615208527776
aF0.05034757807296193
aF0.050264384933699946
aF0.05018103863248215
aF0.050097541927262644
aF0.050013897495044146
aF0.04993010793469158
aF0.049846175769721716
aF0.049762103451074215
aF0.04967789335984992
aF0.04959354781002268
aF0.049509069051115795
aF0.049424459270845766
aF0.04933972059772738
aF0.049254855103639875
aF0.04916986480635236
aF0.04908475167200567
aF0.04899951761754872
aF0.048914164513129306
aF0.04882869418443924
aF0.048743108415006016
aF0.04865740894843887
aF0.04857159749062129
aF0.04848567571185009
aF0.0483996452489273
aF0.04831350770719254
aF0.04822726466250312
aF0.04814091766316255
aF0.04805446823179165
aF0.047967917867143224
aF0.0478812680458643
aF0.04779452022420267
aF0.047707675839655836
aF0.04762073631256826
aF0.047533703047670794
aF0.04744657743556421
aF0.047359360854154486
aF0.047272054670025626
aF0.04718466023976442
aF0.04709717891123127
aF0.04700961202477774
aF0.04692196091441011
aF0.0468342269089055
aF0.04674641133287569
aF0.04665851550777942
aF0.04657054075288797
aF0.04648248838620173
aF0.04639435972531928
aF0.046306156088257625
aF0.04621787879423486
aF0.04612952916439578
aF0.046041108522505036
aF0.045952618195591634
aF0.045864059514552365
aF0.045775433814716854
aF0.04568674243636969
aF0.04559798672523718
aF0.04550916803293391
aF0.045420287717372734
aF0.04533134714314241
aF0.04524234768184726
aF0.045153290712413446
aF0.04506417762136634
aF0.044975009803072306
aF0.04488578865995398
aF0.04479651560267111
aF0.044707192050280155
aF0.044617819430360736
aF0.04452839917911808
aF0.044438932741459373
aF0.04434942157104989
aF0.04425986713033935
aF0.04417027089056931
aF0.04408063433176113
aF0.043990958942676864
aF0.0439012462207711
aF0.043811497672114445
aF0.04372171481130157
aF0.04363189916134789
aF0.0435420522535615
aF0.043452175627408225
aF0.04336227083035373
aF0.04327233941770151
aF0.0431823829524087
aF0.04309240300489696
aF0.04300240115284757
aF0.04291237898098761
aF0.04282233808086536
aF0.04273228005061698
aF0.042642206494726484
aF0.04255211902377152
aF0.042462019254168294
aF0.042371908807907234
aF0.042281789312280826
aF0.042191662399609246
aF0.042101529706955944
aF0.042011392875843455
aF0.04192125355196301
aF0.04183111338487992
aF0.041740974027736334
aF0.0416508371369517
aF0.04156070437192015
aF0.04147057739470653
aF0.04138045786974085
aF0.04129034746351213
aF0.04120024784425915
aF0.041110160681666015
aF0.0410200876465507
aF0.04093003041055836
aF0.04083999064585684
aF0.04074997002482717
aF0.04065997021976156
aF0.040569992902556765
aF0.040480039744415
aF0.040390112415541315
aF0.04030021258484852
aF0.04021034191966
aF0.04012050208541623
aF0.04003069474538637
aF0.03994092156037972
aF0.03985118418846092
aF0.03976148428467031
aF0.039671823500745045
aF0.03958220348484701
aF0.03949262588128958
aF0.03940309233027312
aF0.03931360446762092
aF0.0392241639245228
aF0.039134772327276676
aF0.03904543129704138
aF0.038956142449586735
aF0.03886690739505623
aF0.03877772773772509
aF0.03868860507576998
aF0.03859954100103864
aF0.03851053709882733
aF0.03842159494765991
aF0.038332716119072414
aF0.038243902177403914
aF0.03815515467959036
aF0.03806647517496373
aF0.0379778652050559
aF0.03788932630340491
aF0.03780085999537039
aF0.03771246779795014
aF0.03762415121960306
aF0.03753591176007494
aF0.03744775091023192
aF0.037359670151896104
aF0.03727167095768433
aF0.0371837547908572
aF0.037095923105166725
aF0.03700817734471284
aF0.0369205189438013
aF0.036832949326807446
aF0.03674546990804478
aF0.03665808209163651
aF0.036570787271394505
aF0.03648358683069771
aF0.036396482142381115
aF0.036309474568622165
aF0.03622256546083739
aF0.03613575615957737
aF0.03604904799443401
aF0.035962442283941375
aF0.03587594033549023
aF0.035789543445239984
aF0.03570325289803648
aF0.03561706996733762
aF0.035530995915134665
aF0.03544503199188357
aF0.03535917943644012
aF0.03527343947599516
aF0.03518781332601396
aF0.03510230219018287
aF0.03501690726035471
aF0.034931629716500136
aF0.03484647072666384
aF0.03476143144691852
aF0.03467651302132938
aF0.03459171658191482
aF0.03450704324861702
aF0.0344224941292688
aF0.03433807031956985
aF0.03425377290305927
aF0.034169602951099186
aF0.03408556152285263
aF0.03400164966527006
aF0.033917868413078034
aF0.03383421878876729
aF0.03375070180258582
aF0.03366731845253505
aF0.033584069724368074
aF0.03350095659158794
aF0.033417980015451945
aF0.03333514094497789
aF0.03325244031694891
aF0.033169879055924466
aF0.03308745807425279
aF0.033005178272083914
aF0.03292304053738649
aF0.03284104574596537
aF0.032759194761482105
aF0.03267748843547742
aF0.03259592760739481
aF0.032514513104607866
aF0.03243324574244568
aF0.03235212632422329
aF0.032271155641275
aF0.03219033447298374
aF0.03210966358681846
aF0.032029143738370035
aF0.03194877567138662
aF0.03186856011781599
aF0.031788497797844345
aF0.03170858941993863
aF0.031628835680890706
aF0.03154923726586177
aF0.03146979484842834
aF0.031390509090630105
aF0.03131138064301858
aF0.031232410144706343
aF0.03115359822341935
aF0.031074945495546416
aF0.03099645256619539
aF0.030918120029246095
aF0.030839948467404857
aF0.03076193845226257
aF0.030684090544349927
aF0.03060640529319708
aF0.030528883237391224
aF0.030451524904638448
aF0.03037433081182013
aF0.030297301465060378
aF0.030220437359782748
aF0.030143738980777927
aF0.03006720680226194
aF0.029990841287945307
aF0.029914642891095758
aF0.029838612054602955
aF0.029762749211046702
aF0.029687054782762456
aF0.029611529181907677
aF0.02953617281053197
aF0.02946098606064244
aF0.029385969314274347
aF0.029311122943558986
aF0.02923644731079512
aF0.02916194276851667
aF0.02908760965956348
aF0.029013448317152683
aF0.028939459064949782
aF0.028865642217139144
aF0.02879199807849649
aF0.028718526944457996
aF0.02864522910119606
aF0.028572104825689875
aF0.02849915438579821
aF0.028426378040330255
aF0.028353776039120825
aF0.02828134862310379
aF0.028209096024381503
aF0.0281370184663025
aF0.028065116163531537
aF0.027993389322125483
aF0.02792183813960477
aF0.027850462805027565
aF0.027779263499063993
aF0.027708240394069807
aF0.02763739365415821
aF0.02756672343527639
aF0.027496229885275905
aF0.027425913143989438
aF0.027355773343302574
aF0.027285810607226187
aF0.027216025051972674
aF0.02714641678602656
aF0.0270769859102192
aF0.027007732517802526
aF0.02693865669451991
aF0.026869758518680453
aF0.026801038061232192
aF0.02673249538583392
aF0.02666413054892734
aF0.026595943599810202
aF0.02652793458070756
aF0.02646010352684445
aF0.026392450466516955
aF0.0263249754211642
aF0.026257678405439782
aF0.026190559427281778
aF0.026123618487984952
aF0.02605685558227072
aF0.0259902706983572
aF0.025923863818030548
aF0.025857634916713675
aF0.025791583963535484
aF0.02572571092140127
aF0.02566001574706249
aF0.025594498391182146
aF0.025529158798408447
aF0.025463996907438106
aF0.025399012651086645
aF0.025334205956355865
aF0.02526957674450065
aF0.02520512493109544
aF0.02514085042610277
aF0.025076753133937382
aF0.025012832953532616
aF0.024949089778407905
aF0.024885523496731315
aF0.024822133991386615
aF0.02475892114003627
aF0.02469588481518801
aF0.024633024884255464
aF0.024570341209624362
aF0.02450783364871431
aF0.02444550205404231
aF0.02438334627328466
aF0.02432136614933947
aF0.024259561520388294
aF0.02419793221995718
aF0.024136478076977094
aF0.024075198915845072
aF0.02401409455648571
aF0.02395316481440797
aF0.02389240950076678
aF0.02383182842242136
aF0.023771421381993802
aF0.023711188177928267
aF0.023651128604546698
aF0.023591242452107305
aF0.023531529506862325
aF0.023471989551114483
aF0.023412622363271646
aF0.023353427717904444
aF0.023294405385800656
aF0.02323555513402058
aF0.02317687672595218
aF0.023118369921363572
aF0.02306003447645913
aF0.02300187014393123
aF0.022943876673013664
aF0.022886053809533388
aF0.02282840129596557
aF0.02277091887148191
aF0.022713606272003903
aF0.02265646323025374
aF0.022599489475803022
aF0.022542684735126182
aF0.022486048731647786
aF0.022429581185791372
aF0.02237328181503126
aF0.02231715033393801
aF0.022261186454228556
aF0.022205389884812493
aF0.022149760331840254
aF0.02209429749875024
aF0.022039001086314045
aF0.02198387079268487
aF0.021928906313439727
aF0.021874107341628726
aF0.021819473567816883
aF0.021765004680130116
aF0.02171070036429909
aF0.0216565603037022
aF0.021602584179410737
aF0.021548771670229085
asS'epochs'
p4
(lp5
I0
aI1
aI2
aI3
aI4
aI5
aI6
aI7
aI8
aI9
aI10
aI11
aI12
aI13
aI14
aI15
aI16
aI17
aI18
aI19
aI20
aI21
aI22
aI23
aI24
aI25
aI26
aI27
aI28
aI29
aI30
aI31
aI32
aI33
aI34
aI35
aI36
aI37
aI38
aI39
aI40
aI41
aI42
aI43
aI44
aI45
aI46
aI47
aI48
aI49
aI50
aI51
aI52
aI53
aI54
aI55
aI56
aI57
aI58
aI59
aI60
aI61
aI62
aI63
aI64
aI65
aI66
aI67
aI68
aI69
aI70
aI71
aI72
aI73
aI74
aI75
aI76
aI77
aI78
aI79
aI80
aI81
aI82
aI83
aI84
aI85
aI86
aI87
aI88
aI89
aI90
aI91
aI92
aI93
aI94
aI95
aI96
aI97
aI98
aI99
aI100
aI101
aI102
aI103
aI104
aI105
aI106
aI107
aI108
aI109
aI110
aI111
aI112
aI113
aI114
aI115
aI116
aI117
aI118
aI119
aI120
aI121
aI122
aI123
aI124
aI125
aI126
aI127
aI128
aI129
aI130
aI131
aI132
aI133
aI134
aI135
aI136
aI137
aI138
aI139
aI140
aI141
aI142
aI143
aI144
aI145
aI146
aI147
aI148
aI149
aI150
aI151
aI152
aI153
aI154
aI155
aI156
aI157
aI158
aI159
aI160
aI161
aI162
aI163
aI164
aI165
aI166
aI167
aI168
aI169
aI170
aI171
aI172
aI173
aI174
aI175
aI176
aI177
aI178
aI179
aI180
aI181
aI182
aI183
aI184
aI185
aI186
aI187
aI188
aI189
aI190
aI191
aI192
aI193
aI194
aI195
aI196
aI197
aI198
aI199
aI200
aI201
aI202
aI203
aI204
aI205
aI206
aI207
aI208
aI209
aI210
aI211
aI212
aI213
aI214
aI215
aI216
aI217
aI218
aI219
aI220
aI221
aI222
aI223
aI224
aI225
aI226
aI227
aI228
aI229
aI230
aI231
aI232
aI233
aI234
aI235
aI236
aI237
aI238
aI239
aI240
aI241
aI242
aI243
aI244
aI245
aI246
aI247
aI248
aI249
aI250
aI251
aI252
aI253
aI254
aI255
aI256
aI257
aI258
aI259
aI260
aI261
aI262
aI263
aI264
aI265
aI266
aI267
aI268
aI269
aI270
aI271
aI272
aI273
aI274
aI275
aI276
aI277
aI278
aI279
aI280
aI281
aI282
aI283
aI284
aI285
aI286
aI287
aI288
aI289
aI290
aI291
aI292
aI293
aI294
aI295
aI296
aI297
aI298
aI299
aI300
aI301
aI302
aI303
aI304
aI305
aI306
aI307
aI308
aI309
aI310
aI311
aI312
aI313
aI314
aI315
aI316
aI317
aI318
aI319
aI320
aI321
aI322
aI323
aI324
aI325
aI326
aI327
aI328
aI329
aI330
aI331
aI332
aI333
aI334
aI335
aI336
aI337
aI338
aI339
aI340
aI341
aI342
aI343
aI344
aI345
aI346
aI347
aI348
aI349
aI350
aI351
aI352
aI353
aI354
aI355
aI356
aI357
aI358
aI359
aI360
aI361
aI362
aI363
aI364
aI365
aI366
aI367
aI368
aI369
aI370
aI371
aI372
aI373
aI374
aI375
aI376
aI377
aI378
aI379
aI380
aI381
aI382
aI383
aI384
aI385
aI386
aI387
aI388
aI389
aI390
aI391
aI392
aI393
aI394
aI395
aI396
aI397
aI398
aI399
aI400
aI401
aI402
aI403
aI404
aI405
aI406
aI407
aI408
aI409
aI410
aI411
aI412
aI413
aI414
aI415
aI416
aI417
aI418
aI419
aI420
aI421
aI422
aI423
aI424
aI425
aI426
aI427
aI428
aI429
aI430
aI431
aI432
aI433
aI434
aI435
aI436
aI437
aI438
aI439
aI440
aI441
aI442
aI443
aI444
aI445
aI446
aI447
aI448
aI449
aI450
aI451
aI452
aI453
aI454
aI455
aI456
aI457
aI458
aI459
aI460
aI461
aI462
aI463
aI464
aI465
aI466
aI467
aI468
aI469
aI470
aI471
aI472
aI473
aI474
aI475
aI476
aI477
aI478
aI479
aI480
aI481
aI482
aI483
aI484
aI485
aI486
aI487
aI488
aI489
aI490
aI491
aI492
aI493
aI494
aI495
aI496
aI497
aI498
aI499
aI500
aI501
aI502
aI503
aI504
aI505
aI506
aI507
aI508
aI509
aI510
aI511
aI512
aI513
aI514
aI515
aI516
aI517
aI518
aI519
aI520
aI521
aI522
aI523
aI524
aI525
aI526
aI527
aI528
aI529
aI530
aI531
aI532
aI533
aI534
aI535
aI536
aI537
aI538
aI539
aI540
aI541
aI542
aI543
aI544
aI545
aI546
aI547
aI548
aI549
aI550
aI551
aI552
aI553
aI554
aI555
aI556
aI557
aI558
aI559
aI560
aI561
aI562
aI563
aI564
aI565
aI566
aI567
aI568
aI569
aI570
aI571
aI572
aI573
aI574
aI575
aI576
aI577
aI578
aI579
aI580
aI581
aI582
aI583
aI584
aI585
aI586
aI587
aI588
aI589
aI590
aI591
aI592
aI593
aI594
aI595
aI596
aI597
aI598
aI599
aI600
aI601
aI602
aI603
aI604
aI605
aI606
aI607
aI608
aI609
aI610
aI611
aI612
aI613
aI614
aI615
aI616
aI617
aI618
aI619
aI620
aI621
aI622
aI623
aI624
aI625
aI626
aI627
aI628
aI629
aI630
aI631
aI632
aI633
aI634
aI635
aI636
aI637
aI638
aI639
aI640
aI641
aI642
aI643
aI644
aI645
aI646
aI647
aI648
aI649
aI650
aI651
aI652
aI653
aI654
aI655
aI656
aI657
aI658
aI659
aI660
aI661
aI662
aI663
aI664
aI665
aI666
aI667
aI668
aI669
aI670
aI671
aI672
aI673
aI674
aI675
aI676
aI677
aI678
aI679
aI680
aI681
aI682
aI683
aI684
aI685
aI686
aI687
aI688
aI689
aI690
aI691
aI692
aI693
aI694
aI695
aI696
aI697
aI698
aI699
aI700
aI701
aI702
aI703
aI704
aI705
aI706
aI707
aI708
aI709
aI710
aI711
aI712
aI713
aI714
aI715
aI716
aI717
aI718
aI719
aI720
aI721
aI722
aI723
aI724
aI725
aI726
aI727
aI728
aI729
aI730
aI731
aI732
aI733
aI734
aI735
aI736
aI737
aI738
aI739
aI740
aI741
aI742
aI743
aI744
aI745
aI746
aI747
aI748
aI749
aI750
aI751
aI752
aI753
aI754
aI755
aI756
aI757
aI758
aI759
aI760
aI761
aI762
aI763
aI764
aI765
aI766
aI767
aI768
aI769
aI770
aI771
aI772
aI773
aI774
aI775
aI776
aI777
aI778
aI779
aI780
aI781
aI782
aI783
aI784
aI785
aI786
aI787
aI788
aI789
aI790
aI791
aI792
aI793
aI794
aI795
aI796
aI797
aI798
aI799
aI800
aI801
aI802
aI803
aI804
aI805
aI806
aI807
aI808
aI809
aI810
aI811
aI812
aI813
aI814
aI815
aI816
aI817
aI818
aI819
aI820
aI821
aI822
aI823
aI824
aI825
aI826
aI827
aI828
aI829
aI830
aI831
aI832
aI833
aI834
aI835
aI836
aI837
aI838
aI839
aI840
aI841
aI842
aI843
aI844
aI845
aI846
aI847
aI848
aI849
aI850
aI851
aI852
aI853
aI854
aI855
aI856
aI857
aI858
aI859
aI860
aI861
aI862
aI863
aI864
aI865
aI866
aI867
aI868
aI869
aI870
aI871
aI872
aI873
aI874
aI875
aI876
aI877
aI878
aI879
aI880
aI881
aI882
aI883
aI884
aI885
aI886
aI887
aI888
aI889
aI890
aI891
aI892
aI893
aI894
aI895
aI896
aI897
aI898
aI899
aI900
aI901
aI902
aI903
aI904
aI905
aI906
aI907
aI908
aI909
aI910
aI911
aI912
aI913
aI914
aI915
aI916
aI917
aI918
aI919
aI920
aI921
aI922
aI923
aI924
aI925
aI926
aI927
aI928
aI929
aI930
aI931
aI932
aI933
aI934
aI935
aI936
aI937
aI938
aI939
aI940
aI941
aI942
aI943
aI944
aI945
aI946
aI947
aI948
aI949
aI950
aI951
aI952
aI953
aI954
aI955
aI956
aI957
aI958
aI959
aI960
aI961
aI962
aI963
aI964
aI965
aI966
aI967
aI968
aI969
aI970
aI971
aI972
aI973
aI974
aI975
aI976
aI977
aI978
aI979
aI980
aI981
aI982
aI983
aI984
aI985
aI986
aI987
aI988
aI989
aI990
aI991
aI992
aI993
aI994
aI995
aI996
aI997
aI998
aI999
aI1000
asS'errorsO'
p6
(lp7
F-9.509563446950596e-08
aF-0.0009315260774076477
aF-0.00045369879846766345
aF0.039590924724470296
asS'errorsH'
p8
(lp9
F-0.041507716453591345
aF0.00933471663837852
aF0.0020394906068514408
aF-0.0007790119080704412
aF0.02949259743044835
aF-0.0
asS'errorsI'
p10
(lp11
F-0.022837350332214238
aF0.12951488351328222
aF-0.0
asS'weightsH'
p12
(lp13
(lp14
F-4.0678828639170925
aF5.00519657416187
aF-1.706482622568647
aF-5.6546702337056045
aa(lp15
F2.1219781271532887
aF5.572012354380885
aF-10.312556945237057
aF1.494190738378312
aa(lp16
F-9.32588836716469
aF-1.0736012046229995
aF5.32425621816694
aF7.473653505123732
aa(lp17
F-0.8251834047406937
aF4.167559905258009
aF-5.2924004245136125
aF-0.03962304427488919
aa(lp18
F5.4301676742450535
aF-8.153234666629343
aF-2.466911106359713
aF2.949910567024125
aa(lp19
F-2.531957102095305
aF-4.9464843519135036
aF3.6092132590359323
aF-7.835299577380501
aasS'weightsI'
p20
(lp21
(lp22
F3.723418110684314
aF11.833891876988233
aF2.289355672807336
aF7.452313101735879
aF-1.8797915081338936
aF0.826274431815932
aa(lp23
F-7.940753786480886
aF4.187824614824303
aF-11.08648052872665
aF-0.6733561872536805
aF8.419762282236999
aF0.6984242952093341
aa(lp24
F0.09124132954662288
aF-4.058336092769248
aF7.714915433050247
aF-2.47381466962963
aF-1.544031176056357
aF0.9843010715852923
aasS'nodesO'
p25
(lp26
F0.0003084233668742117
aF0.031005363115850778
aF0.021533309955786836
aF0.7738055756230512
asS'nodesH'
p27
(lp28
F0.2396386532283087
aF0.8008051532345417
aF0.9930217674959032
aF0.47459824607173073
aF0.621748773018638
aF1.0
asS'nodesI'
p29
(lp30
F0.34724
aF0.32036
aF1.0
asb.