(i__main__
NeuralNet
p0
(dp1
S'points'
p2
(lp3
F0.04634832213924277
aF0.06791801479247271
aF0.03964158150068789
aF0.03115502728740348
aF0.02885454662866673
aF0.027993675609924232
aF0.02763360199978897
aF0.027478977302754906
aF0.027416164892391414
aF0.027396980234188944
aF0.027399720186082117
aF0.02741414957606023
aF0.02743526419455399
aF0.027460558978066006
aF0.02748877488564772
aF0.027519298620208344
aF0.027551863471999644
aF0.027586395087819002
aF0.027622929786617543
aF0.027661570442270782
aF0.027702462356238574
aF0.027745779982301058
aF0.027791719617121367
aF0.02784049538253283
aF0.027892337006047246
aF0.02794748854773596
aF0.028006207574318254
aF0.028068764476015726
aF0.028135441729046258
aF0.028206532965461103
aF0.02828234174440439
aF0.028363179937735832
aF0.028449365656355138
aF0.028541220656990208
aF0.02863906718682993
aF0.02874322424868416
aF0.028854003305319637
aF0.02897170349060217
aF0.029096606458332203
aF0.029228971076655827
aF0.02936902826339762
aF0.02951697634859953
aF0.029672977433446924
aF0.02983715527336551
aF0.030009595227283557
aF0.03019034676335363
aF0.030379428875113156
aF0.03057683853099956
aF0.030782561959034876
aF0.030996588181937842
aF0.031218923811920703
aF0.03144960775258856
aF0.0316887242089287
aF0.0319364123394666
aF0.03219287103797757
aF0.032458357709880516
aF0.03273318047278352
aF0.033017683886321904
aF0.03331222900480382
aF0.03361716914547546
aF0.033932823191280576
aF0.03425944844917803
aF0.03459721505336527
aF0.03494618366504321
aF0.03530628783191288
aF0.03567732189947897
aF0.036058934879045317
aF0.036450630228562264
aF0.03685177112923627
aF0.0372615905619495
aF0.03767920530664432
aF0.03810363289759013
aF0.038533810554092385
aF0.03896861515320015
aF0.039406883401580654
aF0.03984743148255967
aF0.0402890735880888
aF0.0407306388832122
aF0.04117098658401062
aF0.04160901895281035
aF0.04204369212254977
aF0.04247402475325946
aF0.042899104596806556
aF0.043318093101720155
aF0.04373022822927398
aF0.044134825676852917
aF0.04453127871711178
aF0.044919056863794486
aF0.04529770356954276
aF0.04566683314963704
aF0.046026127110199246
aF0.04637533004151503
aF0.04671424521805404
aF0.04704273002749927
aF0.04736069133238022
aF0.04766808085027229
aF0.04796489062233183
aF0.048251148625374024
aF0.04852691456985421
aF0.048792275914978415
aF0.04904734412267268
asS'epochs'
p4
(lp5
I0
aI1
aI2
aI3
aI4
aI5
aI6
aI7
aI8
aI9
aI10
aI11
aI12
aI13
aI14
aI15
aI16
aI17
aI18
aI19
aI20
aI21
aI22
aI23
aI24
aI25
aI26
aI27
aI28
aI29
aI30
aI31
aI32
aI33
aI34
aI35
aI36
aI37
aI38
aI39
aI40
aI41
aI42
aI43
aI44
aI45
aI46
aI47
aI48
aI49
aI50
aI51
aI52
aI53
aI54
aI55
aI56
aI57
aI58
aI59
aI60
aI61
aI62
aI63
aI64
aI65
aI66
aI67
aI68
aI69
aI70
aI71
aI72
aI73
aI74
aI75
aI76
aI77
aI78
aI79
aI80
aI81
aI82
aI83
aI84
aI85
aI86
aI87
aI88
aI89
aI90
aI91
aI92
aI93
aI94
aI95
aI96
aI97
aI98
aI99
aI100
asS'errorsO'
p6
(lp7
F-0.009538262021365646
aF-0.05261926275830895
aF-0.059714571243983806
aF0.14052254030608125
asS'errorsH'
p8
(lp9
F-0.028382673591124518
aF0.0519017103873785
aF-0.05346190473548023
aF0.013054736003760134
aF0.05848728198294919
aF-0.0
asS'errorsI'
p10
(lp11
F0.02346619129717736
aF0.1112464612245785
aF-0.0
asS'weightsH'
p12
(lp13
(lp14
F-1.7193072393921922
aF0.6312521956902332
aF-0.048534461599775744
aF-0.722393856684304
aa(lp15
F1.40364581219263
aF-0.07183413366414652
aF-2.841513480060036
aF0.36030832765568815
aa(lp16
F-2.2838542834979436
aF0.6860405223229198
aF1.7158458639396694
aF-0.6817079935917914
aa(lp17
F0.20325974332373054
aF0.18360946597298333
aF-1.367764857389703
aF-0.10005364229272865
aa(lp18
F3.0464574786483674
aF-2.234720013332604
aF-1.9730720993414934
aF0.3443492846382673
aa(lp19
F-1.9823603255744262
aF-1.0011286518607652
aF1.3278413626106997
aF-0.5587976207782441
aasS'weightsI'
p20
(lp21
(lp22
F1.0563533575252357
aF2.0743725483863273
aF-0.1142085737548332
aF1.4900244176175803
aF0.010853359096240932
aF0.826274431815932
aa(lp23
F-1.3048970399350317
aF2.3502713734408833
aF-2.28271663850316
aF0.9446915726590004
aF3.7250319060194808
aF0.6984242952093341
aa(lp24
F0.3938293423883189
aF-1.2877326601222003
aF0.7958474252143574
aF-0.4086105274069865
aF-1.7645936667401545
aF0.9843010715852923
aasS'nodesO'
p25
(lp26
F0.10312618500467903
aF0.2681375575680853
aF0.2900108978594625
aF0.2494555255097612
asS'nodesH'
p27
(lp28
F0.5856648360162341
aF0.5446697707849333
aF0.5078588604364634
aF0.6010471345802696
aF0.36016964249707356
aF1.0
asS'nodesI'
p29
(lp30
F0.34724
aF0.32036
aF1.0
asb.