(i__main__
NeuralNet
p0
(dp1
S'errorsH'
p2
(lp3
F-0.0169749225547214
aF-0.03597491732560822
aF-0.03152636200076751
aF-0.0227547295897723
aF0.01947555261047448
aF1.0
asS'errorsI'
p4
(lp5
F-0.0
aF0.006812532772905699
aF-0.006039968684519811
asS'errorsO'
p6
(lp7
F0.07162418350569796
aF0.10874755400298249
aF0.029116976600499427
aF-0.14609485211493436
asS'inp'
p8
I3
sS'nodesI'
p9
(lp10
F1.0
aF0.34724
aF0.32036
asS'nodesH'
p11
(lp12
F0.7262943745979978
aF0.2999183670773651
aF0.7813056245396589
aF0.4731938236909207
aF0.48707100026044653
aF1.0
asS'nodesO'
p13
(lp14
F0.3259824700122818
aF0.44110945606379115
aF0.18954319756252633
aF0.2889924196571468
asS'weightsI'
p15
(lp16
(lp17
F0.9610837168829851
aF-0.7906990161605487
aF0.9761648025515746
aF0.24458020460658902
aF-0.10875587726926961
aa(lp18
F-0.07119351379334637
aF-0.8089211801746973
aF0.7475213072546317
aF-0.49632806986450606
aF0.6109416379931918
aa(lp19
F0.12460559322257973
aF0.7014145655332221
aF0.11943056290295667
aF-0.5589179681418687
aF-0.4855466768436186
aasS'weightsH'
p20
(lp21
(lp22
F-0.11049752372963531
aF-0.7531630109275426
aF-0.4915577346885818
aF-0.108816141064007
aa(lp23
F-0.27074265540861037
aF-1.3512721353578536
aF-0.40695948262339504
aF-0.03887068464394182
aa(lp24
F-0.6450476900349079
aF-0.5817719277522334
aF-0.6790365661572638
aF0.3992466473455806
aa(lp25
F-1.1012438416179031
aF0.08232766663117681
aF-0.23063260084472886
aF0.11291049690666094
aa(lp26
F-0.6315486753951536
aF0.41167515005760685
aF0.8773516559165504
aF-0.3488639998010368
aa(lp27
F0.7556344933628754
aF0.912330560662562
aF-0.7664923695161401
aF-0.9803566560714583
aasS'hidden'
p28
I6
sS'out'
p29
I4
sb.