(i__main__
NeuralNet
p0
(dp1
S'errorsH'
p2
(lp3
F0.0033742688579474784
aF0.006892683585587849
aF-0.010258124095369116
aF0.003051260652288388
aF-0.010701558249071368
aF-0.0
asS'errorsI'
p4
(lp5
F-0.000180637740368492
aF0.0006241830991112309
aF0.0
asS'errorsO'
p6
(lp7
F-0.036504356802609585
aF-0.061943384357433046
aF-0.12141380589619438
aF0.148037329551409
asS'inp'
p8
I3
sS'nodesI'
p9
(lp10
F0.34724
aF0.32036
aF1.0
asS'nodesH'
p11
(lp12
F0.7340212670522289
aF0.7710990865505652
aF0.6962986361392326
aF0.7656642140413549
aF0.4574309372529089
aF1.0
asS'nodesO'
p13
(lp14
F0.2157467065352118
aF0.2967949217591782
aF0.4860344040451516
aF0.3228609843490078
asS'weightsI'
p15
(lp16
(lp17
F0.7008838992734747
aF0.2057375944445584
aF0.34455300644473075
aF0.16304049885424357
aF0.14325078509499714
aF0.7931734619825216
aa(lp18
F0.7968984707888598
aF0.8818089285406107
aF0.6935708803545572
aF0.8383572338715308
aF0.1246811047038742
aF0.8591465232669545
aa(lp19
F0.5168650714744112
aF0.86143415132826
aF0.48664404712987036
aF0.8591715670914949
aF-0.2616837279216074
aF0.9252945454698219
aasS'weightsH'
p20
(lp21
(lp22
F-0.05625589277072108
aF-0.4130725294634808
aF-0.3850736576058722
aF-0.3650474119059641
aa(lp23
F-0.517358980039449
aF-0.05523142735874509
aF-0.6096633604695576
aF-0.36512798980147687
aa(lp24
F-0.29056234458923336
aF0.26613918379709833
aF0.38358307016848087
aF0.04629920264021793
aa(lp25
F-0.6734066344688111
aF-0.18339196502659738
aF0.3385009845043257
aF0.1713416814883582
aa(lp26
F0.23506230545240522
aF0.38233078281861294
aF-0.057510150915444404
aF-0.10757015290995567
aa(lp27
F-0.25246365161765116
aF-0.7577454544323531
aF0.15547965880374542
aF-0.2548392102875017
aasS'hidden'
p28
I6
sS'out'
p29
I4
sb.