(i__main__
NeuralNet
p0
(dp1
S'errorsH'
p2
(lp3
F0.00743003596521322
aF0.007354189036317679
aF-0.0248590150623499
aF0.01715224109781265
aF-0.0075288535718342235
aF0.0
asS'errorsI'
p4
(lp5
F0.002852279264395444
aF0.004305597973464034
aF0.0
asS'errorsO'
p6
(lp7
F-0.045121442364416495
aF-0.09342085758471194
aF-0.10920094552362375
aF0.12603435665936488
asS'inp'
p8
I3
sS'nodesI'
p9
(lp10
F0.34724
aF0.32036
aF1.0
asS'nodesH'
p11
(lp12
F0.49314457716453947
aF0.639916227343111
aF0.547227206751046
aF0.7393350954262624
aF0.5298174653824403
aF1.0
asS'nodesO'
p13
(lp14
F0.2443626182068429
aF0.39197877967095424
aF0.4426309449650313
aF0.4958274626500319
asS'weightsI'
p15
(lp16
(lp17
F-0.13495706353556242
aF0.7674054208591854
aF0.09034189386047992
aF0.8053824575378644
aF0.47657495290046303
aF0.6464039089747448
aa(lp18
F0.8279512052574401
aF0.5344574221668842
aF0.052957892892374826
aF0.7564633480264865
aF0.2565118293754278
aF0.06562358411181513
aa(lp19
F-0.24489452065301343
aF0.13820749762504558
aF0.13809696571441754
aF0.522612040631831
aF-0.12917139884866424
aF0.2981115593667776
aasS'weightsH'
p20
(lp21
(lp22
F0.12203016774306592
aF-0.004921662048528316
aF0.1913799328930403
aF0.4568055595567553
aa(lp23
F0.14527801342337582
aF-0.03914172359127972
aF-0.4922783593370389
aF-0.1307139161667703
aa(lp24
F-0.17240317186534856
aF0.057450200168767444
aF0.4216806561205835
aF-0.4330919919677324
aa(lp25
F-0.6694051727621333
aF-0.2517205276523071
aF0.013482403145892455
aF0.31424032935818724
aa(lp26
F0.2856257905433206
aF-0.3637344991632777
aF0.4899017956909631
aF0.033530232988515464
aa(lp27
F-0.8566650543177105
aF-0.09011316459108228
aF-0.540486009536715
aF-0.1363790441639259
aasS'hidden'
p28
I6
sS'out'
p29
I4
sb.