(i__main__
NeuralNet
p0
(dp1
S'errorsH'
p2
(lp3
F-0.026751543023061933
aF-0.030211432213217992
aF0.03988702003472585
aF-0.027176392428801193
aF-0.0017382407590381752
asS'errorsI'
p4
(lp5
F-0.00025943906322188295
aF-0.009712456188341805
asS'errorsO'
p6
(lp7
F0.07264855458477025
aF0.08103710133571812
aF0.11272641843142756
aF-0.1356919077379215
asS'inp'
p8
I3
sS'nodesI'
p9
(lp10
F0.34724
aF0.32036
aF1.0
asS'nodesH'
p11
(lp12
F0.49173766690711723
aF0.48260237789948945
aF0.5461847179593569
aF0.2687435561531268
aF0.27244539802240525
aF1.0
asS'nodesO'
p13
(lp14
F0.3290565401854694
aF0.354249868159904
aF0.4546464100429444
aF0.4522330502006938
asS'weightsI'
p15
(lp16
(lp17
F0.40850424769039373
aF0.8580395048530207
aF0.4932575083623502
aF-0.5794832557527955
aF-0.08384909584045167
aa(lp18
F0.53363797038013
aF0.6187107809609987
aF-0.9409312577036095
aF-0.8936591858002214
aF-0.8499909052236962
aa(lp19
F-0.34526050533932073
aF-0.5651000791469827
aF0.31453468002276397
aF-0.5128875922803129
aF-0.680793185658582
aasS'weightsH'
p20
(lp21
(lp22
F-0.898039252127901
aF-0.8598984694621156
aF-1.3348806696477844
aF-1.298921458465795
aa(lp23
F-0.3460817037856564
aF-0.1679748343525173
aF-0.4862842601750589
aF0.21736059209269748
aa(lp24
F-0.08852493732555915
aF0.33362509018805114
aF-0.425110923592913
aF-1.3699480129364292
aa(lp25
F-1.199405785636876
aF0.19850842041663908
aF-0.14327339492355023
aF0.38501373285153156
aa(lp26
F0.06640060573756804
aF-0.2457587711282631
aF0.49525518116265316
aF0.37346748362961474
aa(lp27
F0.24207742706148294
aF-0.27256473234786305
aF0.8345766159630406
aF0.8976793801704375
aasS'hidden'
p28
I6
sS'out'
p29
I4
sb.