(i__main__
NeuralNet
p0
(dp1
S'errorsH'
p2
(lp3
F-0.0
aF-0.014177710895068555
aF-0.03749879369536274
aF0.0002554460734986501
aF-0.031247057818756217
aF-0.03008684024997434
asS'errorsI'
p4
(lp5
F-0.0
aF0.0009205409222961642
aF-0.002514856661189866
asS'training'
p6
I00
sS'errorsO'
p7
(lp8
F0.03651484182138531
aF0.035560206535015265
aF0.04342798576971595
aF0.037214541132476
asS'inp'
p9
I3
sS'nodesI'
p10
(lp11
F1.0
aF0.34724
aF0.32036
asS'nodesH'
p12
(lp13
F1.0
aF0.24569198207912543
aF0.710587976972163
aF0.21643599903424263
aF0.7024991666193364
aF0.8148288974292978
asS'nodesO'
p14
(lp15
F0.009149639430774625
aF0.008909898205260844
aF0.010886626099385946
aF0.009325375942235004
asS'weightsI'
p16
(lp17
(lp18
F0.2788535969157675
aF-0.6919920973870985
aF0.6455060643092935
aF-0.8993465903754629
aF1.121575389715434
aF1.260498779783785
aa(lp19
F0.7843591354096908
aF-0.7487427081082474
aF0.2162643929902344
aF-1.0764849457661747
aF-0.3565103505699944
aF0.31344649733781715
aa(lp20
F-0.9469280606322728
aF-0.5244175575428459
aF0.568818108562947
aF-0.04196491618354439
aF-0.42056245356482447
aF0.36221180006367065
aasS'weightsH'
p21
(lp22
(lp23
F-1.5553761533416928
aF-2.338569725035591
aF-2.1643591337277477
aF-1.5896802262814347
aa(lp24
F-0.7739934323661092
aF-0.9754398695598248
aF0.3199365130498471
aF-0.7413815563061269
aa(lp25
F-1.9017532809208246
aF-1.5133511042318426
aF-0.6890309723411436
aF-0.7947670220443585
aa(lp26
F0.10042624666996834
aF0.13803143225187048
aF-0.5712247807793699
aF0.47322602194611785
aa(lp27
F-1.4624257976425674
aF-0.6699804482908805
aF-0.9215345741025536
aF-0.8781159997691845
aa(lp28
F-0.7270753274392481
aF-0.7696205417458426
aF-1.4419228233146444
aF-2.239632843133412
aasS'hidden'
p29
I6
sS'out'
p30
I4
sb.