(i__main__
NeuralNet
p0
(dp1
S'errorsH'
p2
(lp3
F0.07174584960882713
aF0.026924828769929045
aF-0.076046348167611
aF0.01235858872770025
aF0.007595592678895978
aF-0.0
asS'errorsI'
p4
(lp5
F0.004628201380370525
aF0.12760846426432315
aF-0.0
asS'errorsO'
p6
(lp7
F-0.007833392329680056
aF-0.04078910990288392
aF-0.061792052811140606
aF0.1417108211764953
asS'inp'
p8
I3
sS'nodesI'
p9
(lp10
F0.34724
aF0.32036
aF1.0
asS'nodesH'
p11
(lp12
F0.4569115872424836
aF0.5591557250150355
aF0.5703160268500144
aF0.7066030781510261
aF0.46606258111620236
aF1.0
asS'nodesO'
p13
(lp14
F0.09292968432016784
aF0.23018619038371146
aF0.2963353352082999
aF0.2560324809756096
asS'weightsI'
p15
(lp16
(lp17
F-1.443916902398008
aF2.9943228332472334
aF-0.4590106157994152
aF1.320966590824438
aF-0.9778270768276447
aF0.6464039089747448
aa(lp18
F3.8243638580494355
aF2.0821212476931312
aF-3.149262428112519
aF0.4680069447691315
aF1.4153695219656237
aF0.06562358411181513
aa(lp19
F-0.8877937245724928
aF-1.4657472448555435
aF1.4421231695833565
aF0.27183128320519084
aF-0.24891672797491557
aF0.2981115593667776
aasS'weightsH'
p20
(lp21
(lp22
F2.8732566819980496
aF-3.0695648187816484
aF-0.9487236034201363
aF0.9101662953923629
aa(lp23
F1.43188236476563
aF0.9490053196395877
aF-3.2738675013084295
aF-0.2943481052527478
aa(lp24
F-3.172303733748027
aF0.8882187512128454
aF2.5307327509577497
aF-0.9957064896899875
aa(lp25
F-0.813031503498273
aF0.2663975057148524
aF-0.9980132845525943
aF0.029999758350589247
aa(lp26
F0.8245318973330658
aF-1.5295020442298175
aF0.33392287036117213
aF-0.02524207308793456
aa(lp27
F-2.3944314249889804
aF-0.32779622255759067
aF0.48968875628468644
aF-0.7232152082997297
aasS'hidden'
p28
I6
sS'out'
p29
I4
sb.