(i__main__
NeuralNet
p0
(dp1
S'errorsH'
p2
(lp3
F-0.003802873626714967
aF-0.033186889405479335
aF0.1086310379445501
aF0.015798808953057717
aF0.012226624163013615
asS'errorsI'
p4
(lp5
F0.044090409365756554
aF-0.13026815001181746
asS'errorsO'
p6
(lp7
F0.017590586616689684
aF0.03827574380984819
aF0.047652044509069943
aF-0.13705326788604538
asS'inp'
p8
I3
sS'nodesI'
p9
(lp10
F0.34724
aF0.32036
aF1.0
asS'nodesH'
p11
(lp12
F0.6230325785630239
aF0.6655366081274812
aF0.4435198993908071
aF0.24000150920722021
aF0.17788411557619163
aF1.0
asS'nodesO'
p13
(lp14
F0.14329265017141687
aF0.22177300061982247
aF0.2524816644103409
aF0.23292176815626386
asS'weightsI'
p15
(lp16
(lp17
F0.5121791691344235
aF1.81150333567377
aF2.4764249941537666
aF0.13417030466354193
aF-1.2280032840828272
aa(lp18
F2.0911984491118005
aF1.9505575764037113
aF-4.381826535085453
aF-2.143605878488343
aF-1.3229395720249448
aa(lp19
F-0.34526050533932073
aF-0.5651000791469827
aF0.31453468002276397
aF-0.5128875922803129
aF-0.680793185658582
aasS'weightsH'
p20
(lp21
(lp22
F0.34881621325915524
aF-2.6696930892132253
aF-2.2934293544790894
aF-1.3696938334578332
aa(lp23
F0.8583579937620306
aF-0.8919398507287272
aF-2.282535019193815
aF0.1663614302518149
aa(lp24
F-3.932490143422495
aF2.9971459119811037
aF0.5207226572635901
aF-2.6907141278736084
aa(lp25
F-3.329675546008754
aF0.41528901536014867
aF1.552200594766272
aF-0.3996834920434462
aa(lp26
F-1.560439962043892
aF-0.8944827478350613
aF2.35653769851455
aF-0.23780468866405244
aa(lp27
F0.24207742706148294
aF-0.27256473234786305
aF0.8345766159630406
aF0.8976793801704375
aasS'hidden'
p28
I6
sS'out'
p29
I4
sb.