(i__main__
NeuralNet
p0
(dp1
S'errorsH'
p2
(lp3
F0.012775227977134148
aF-5.6950924744628774e-05
aF-0.027800478026341897
aF0.01075052443342651
aF-0.008073102737118911
aF-0.0
asS'errorsI'
p4
(lp5
F0.00026884117152556743
aF0.004469837141387478
aF-0.0
asS'errorsO'
p6
(lp7
F-0.02490441697744945
aF-0.048061444280749
aF-0.06903112106657805
aF0.14048196099217836
asS'inp'
p8
I3
sS'nodesI'
p9
(lp10
F0.34724
aF0.32036
aF1.0
asS'nodesH'
p11
(lp12
F0.48007123309953037
aF0.6440048580196445
aF0.5459169708666631
aF0.746880135468649
aF0.5226560811999302
aF1.0
asS'nodesO'
p13
(lp14
F0.173597014005799
aF0.25378533227101424
aF0.3181940646652609
aF0.24924096848284458
asS'weightsI'
p15
(lp16
(lp17
F-0.18160930386504914
aF0.8241227561028007
aF0.07440049920226023
aF0.8043038449508829
aF0.3699231139451117
aF0.6464039089747448
aa(lp18
F0.9078192289423919
aF0.6992927191923415
aF-0.14081618205388066
aF0.7091865211123557
aF0.3135797635562545
aF0.06562358411181513
aa(lp19
F-0.30596160005050743
aF0.08258841732662274
aF0.2000633024759196
aF0.576875111386696
aF-0.13921159766150892
aF0.2981115593667776
aasS'weightsH'
p20
(lp21
(lp22
F0.25333336803728596
aF-0.2842113491010864
aF-0.02037709259996591
aF0.3113705408910209
aa(lp23
F0.12174887403345312
aF-0.14691356767546618
aF-0.7344791107595282
aF-0.37878581793334776
aa(lp24
F-0.3538972832768897
aF-0.04922350000843481
aF0.4250438030132525
aF-0.6583644644413038
aa(lp25
F-0.718418495390276
aF-0.4079877111449293
aF-0.21882411825640166
aF0.04490803678412606
aa(lp26
F0.22731381911668216
aF-0.4628962654267504
aF0.34699562546280505
aF-0.16769427286873
aa(lp27
F-1.1563158432487004
aF-0.2872777783582128
aF-0.5484065001855583
aF-0.5557138494009117
aasS'hidden'
p28
I6
sS'out'
p29
I4
sb.