(i__main__
NeuralNet
p0
(dp1
S'errorsH'
p2
(lp3
F-6.189115614674222e-06
aF0.005537625720194999
aF0.0007007181341494585
aF-0.0009452571877179577
aF-0.002454205700378061
aF-0.0
asS'errorsI'
p4
(lp5
F0.0050782177561330116
aF0.021430918013657582
aF-0.0
asS'errorsO'
p6
(lp7
F-9.235955590693888e-08
aF-5.8869207055477576e-05
aF-2.536530850833863e-05
aF0.004011063382546082
asS'inp'
p8
I3
sS'nodesI'
p9
(lp10
F0.34724
aF0.32036
aF1.0
asS'nodesH'
p11
(lp12
F0.00010175600188061198
aF0.7419397411386902
aF0.8851441354236477
aF0.22211286289633064
aF0.08171500772751755
aF1.0
asS'nodesO'
p13
(lp14
F0.0003039533474706328
aF0.007702347547407314
aF0.005049161513906501
aF0.9344845544954877
asS'weightsI'
p15
(lp16
(lp17
F-1.29882394865085
aF9.04322026547481
aF3.445852995744583
aF-12.29716250524395
aF16.99902780629121
aF0.7931734619825216
aa(lp18
F18.031353593508094
aF11.738865313308963
aF-6.6362703366543
aF-2.441309868477379
aF-14.619383661842706
aF0.8591465232669545
aa(lp19
F-14.51835255400335
aF-5.844078421635102
aF2.9716157889621404
aF3.7986533117912358
aF-3.6388469789265425
aF0.9252945454698219
aasS'weightsH'
p20
(lp21
(lp22
F12.620767540781106
aF-3.3301054329108712
aF-6.587267555714377
aF-15.255618817399316
aa(lp23
F1.2851640716539356
aF-0.8256869513793641
aF-13.168459358464235
aF7.115581987769853
aa(lp24
F-6.69461982516858
aF1.78597789128453
aF1.716790648472463
aF1.7556398709300622
aa(lp25
F-0.1941864026751406
aF-8.899155778854968
aF9.759799934278222
aF-1.432761674199653
aa(lp26
F-3.1547283597891673
aF15.810839341483323
aF-13.57972438586635
aF-8.007891320151584
aa(lp27
F-2.8265074633435363
aF-5.1417769528641735
aF1.9096794288563907
aF-3.20050753935553
aasS'hidden'
p28
I6
sS'out'
p29
I4
sb.