(i__main__
NeuralNet
p0
(dp1
S'errorsH'
p2
(lp3
F-0.01097357491889063
aF-0.02714383605747478
aF-0.02409729575244885
aF-0.007753577877695131
aF0.0356823314445881
aF1.0
asS'errorsI'
p4
(lp5
F-0.0
aF0.007373946422262667
aF-0.013817765033671606
asS'errorsO'
p6
(lp7
F0.03103498175916585
aF0.057971341696385445
aF0.0703933793771528
aF-0.13642277483658338
asS'inp'
p8
I3
sS'nodesI'
p9
(lp10
F1.0
aF0.34724
aF0.32036
asS'nodesH'
p11
(lp12
F0.7303509051368035
aF0.31924013765986187
aF0.7821116736229952
aF0.4491208943469769
aF0.4453871303797428
aF1.0
asS'nodesO'
p13
(lp14
F0.19653621817011305
aF0.2846796193370224
aF0.3222872057987427
aF0.2302339611660264
asS'weightsI'
p15
(lp16
(lp17
F0.9610837168829851
aF-0.7906990161605487
aF0.9761648025515746
aF0.24458020460658902
aF-0.10875587726926961
aa(lp18
F-0.13980712846152438
aF-0.864813039240442
aF0.7313694289510262
aF-0.4505293195055426
aF0.6041785708539179
aa(lp19
F0.26255304310577715
aF1.0436276261720692
aF0.1511649758916543
aF-0.9120633388518001
aF-1.0025034945217006
aasS'weightsH'
p20
(lp21
(lp22
F-0.3491023340825008
aF-1.1009125453326964
aF-0.1966142240818851
aF-0.22531650304688264
aa(lp23
F-0.14690477430434173
aF-1.7302046830485096
aF-0.3488680092515702
aF-0.026607465725582393
aa(lp24
F-0.9208213956667883
aF-0.8494604147605155
aF-0.42435745211824755
aF0.26309831715760035
aa(lp25
F-1.5187524918508224
aF-0.043890960617807756
aF0.18537958777378766
aF-0.029598812919408454
aa(lp26
F-1.0433123894672018
aF0.442858193723116
aF1.1568014147791899
aF-0.5020087367934558
aa(lp27
F0.7556344933628754
aF0.912330560662562
aF-0.7664923695161401
aF-0.9803566560714583
aasS'hidden'
p28
I6
sS'out'
p29
I4
sb.