(i__main__
NeuralNet
p0
(dp1
S'errorsH'
p2
(lp3
F-0.0
aF-5.149534737886476e-05
aF-3.057320112867946e-05
aF-1.249141900550982e-05
aF-3.193258923306086e-05
aF-2.6094630120776664e-05
asS'errorsI'
p4
(lp5
F-0.0
aF-1.8680166199810155e-06
aF-7.173545160459945e-06
asS'training'
p6
I00
sS'errorsO'
p7
(lp8
F4.492411061045382e-05
aF4.5359354518547416e-05
aF4.918530002002497e-05
aF4.576394926024446e-05
asS'inp'
p9
I3
sS'nodesI'
p10
(lp11
F1.0
aF0.34724
aF0.32036
asS'nodesH'
p12
(lp13
F1.0
aF0.5663190012229745
aF0.9308620171828008
aF0.2572662858828594
aF0.9192418839688463
aF0.9455235053086678
asS'nodesO'
p14
(lp15
F1.1231059186786068e-05
aF1.133987077780417e-05
aF1.22963628051408e-05
aF1.1441020039296e-05
asS'weightsI'
p16
(lp17
(lp18
F0.2788535969157675
aF0.4643709869857019
aF2.07457220070419
aF-0.7102449472874525
aF2.4215020800709777
aF2.411080981397592
aa(lp19
F0.7843591354096908
aF-0.3768970457153615
aF0.6700378883891618
aF-1.0170433113933761
aF0.06883301470992761
aF0.677191464600453
aa(lp20
F-0.9469280606322728
aF-0.20802431648226624
aF0.9138918122443122
aF0.00992223554368423
aF-0.041543651176583755
aF0.648469458592291
aasS'weightsH'
p21
(lp22
(lp23
F-3.08929458225539
aF-3.9139847999582296
aF-3.890853482659955
aF-3.1782238609072944
aa(lp24
F-1.3539941215687565
aF-1.5703924276190273
aF-0.3297174408641751
aF-1.341543928631179
aa(lp25
F-3.193192471829034
aF-2.8401928309310276
aF-2.139256852037128
aF-2.1315839835954487
aa(lp26
F-0.25845281436710016
aF-0.23033709427808752
aF-0.9747746774602138
aF0.10118156854333313
aa(lp27
F-2.7425419763528978
aF-1.9848415084662832
aF-2.359860958547634
aF-2.203506783532333
aa(lp28
F-2.09489743425052
aF-2.1746995158203184
aF-2.979537783604487
aF-3.6557640883827
aasS'hidden'
p29
I6
sS'out'
p30
I4
sb.