(i__main__
NeuralNet
p0
(dp1
S'errorsH'
p2
(lp3
F0.08361789451402718
aF-0.025038176718689062
aF0.07564280147886136
aF-0.00683734329449535
aF-0.0016802538451935027
asS'errorsI'
p4
(lp5
F-0.044094181716881474
aF-0.10760736350669627
asS'errorsO'
p6
(lp7
F0.0004467710209183194
aF0.00012834827557286547
aF0.0092146797823085
aF-0.058009409231476274
asS'inp'
p8
I3
sS'nodesI'
p9
(lp10
F0.34724
aF0.32036
aF1.0
asS'nodesH'
p11
(lp12
F0.3106248414435652
aF0.8943195661659897
aF0.1991133690054283
aF0.18256823729801472
aF0.14303702254856668
aF1.0
asS'nodesO'
p13
(lp14
F0.021366453816611078
aF0.011394189543201967
aF0.10125633471434169
aF0.7152036981336108
asS'weightsI'
p15
(lp16
(lp17
F-5.430313888676631
aF4.637307490891088
aF4.7262437451004375
aF-1.9767629351816605
aF-2.475182821287861
aa(lp18
F4.469398687837908
aF3.4056801598082056
aF-10.454516789258289
aF-0.9351731016586489
aF-0.780303561548239
aa(lp19
F-0.34526050533932073
aF-0.5651000791469827
aF0.31453468002276397
aF-0.5128875922803129
aF-0.680793185658582
aasS'weightsH'
p20
(lp21
(lp22
F5.048767253255227
aF-11.10606287266279
aF2.1570592488019
aF-6.372651835479749
aa(lp23
F-2.4468434889411617
aF-0.43671397095314385
aF-8.017581484939628
aF3.278783093477551
aa(lp24
F-7.717606905967363
aF6.6205730061016705
aF0.9260887976788309
aF-8.07356841048424
aa(lp25
F-7.1007016551401305
aF-4.0678581121061095
aF9.584454396210386
aF2.249660740034117
aa(lp26
F-4.288596075784698
aF-6.472744882423479
aF10.816772899204063
aF1.908024198890973
aa(lp27
F0.24207742706148294
aF-0.27256473234786305
aF0.8345766159630406
aF0.8976793801704375
aasS'hidden'
p28
I6
sS'out'
p29
I4
sb.