(i__main__
NeuralNet
p0
(dp1
S'errorsH'
p2
(lp3
F0.024311332196116527
aF0.04757174222839675
aF-0.01707653996754695
aF0.04228333035216136
aF0.0711963107358789
aF1.0
asS'errorsI'
p4
(lp5
F-0.0
aF-0.06710496540954308
aF-0.13413543321970176
asS'errorsO'
p6
(lp7
F6.221616362050617e-05
aF0.0010991933986178111
aF0.021520036272791473
aF-0.07477732971771181
asS'inp'
p8
I3
sS'nodesI'
p9
(lp10
F1.0
aF0.34724
aF0.32036
asS'nodesH'
p11
(lp12
F0.2278388489711445
aF0.21514455096432453
aF0.9546470871564081
aF0.1821135361042158
aF0.15324454442650529
aF1.0
asS'nodesO'
p13
(lp14
F0.007919141057649553
aF0.03372774462269861
aF0.16006592932897332
aF0.6645568715621696
asS'weightsI'
p15
(lp16
(lp17
F0.9610837168829851
aF-0.7906990161605487
aF0.9761648025515746
aF0.24458020460658902
aF-0.10875587726926961
aa(lp18
F-5.410516317356117
aF-6.073722427749264
aF3.622077685967554
aF-3.564141322428862
aF4.728181899690926
aa(lp19
F-0.9471637268282106
aF5.008387858201916
aF2.5388732232296007
aF-1.5919739486231363
aF-10.126183389394457
aasS'weightsH'
p20
(lp21
(lp22
F-4.171401546920445
aF-8.235422398899239
aF10.740879891384145
aF1.1204116791066605
aa(lp23
F7.0494570577634095
aF-8.704029612296868
aF-2.9910068728228842
aF-4.7486647371430015
aa(lp24
F-4.120828607989489
aF-1.198076379567288
aF-4.463932826187551
aF3.9765313963327404
aa(lp25
F-6.817113999488329
aF-2.732576176331215
aF10.130305870301708
aF-0.9253120759985649
aa(lp26
F-6.375314568537306
aF7.32672301891068
aF-1.83116430796859
aF-7.76079043263341
aa(lp27
F0.7556344933628754
aF0.912330560662562
aF-0.7664923695161401
aF-0.9803566560714583
aasS'hidden'
p28
I6
sS'out'
p29
I4
sb.