(i__main__
NeuralNet
p0
(dp1
S'errorsH'
p2
(lp3
F-0.0008603218439301183
aF0.02578749401412533
aF0.0009184750475375189
aF-0.007663125830315941
aF-0.014764303291487714
aF-0.0
asS'errorsI'
p4
(lp5
F0.023535156638801423
aF0.07173727837820369
aF-0.0
asS'errorsO'
p6
(lp7
F-4.3412660853945306e-07
aF-0.0026943093043711192
aF-0.004595518020810754
aF0.018377994384224643
asS'inp'
p8
I3
sS'nodesI'
p9
(lp10
F0.34724
aF0.32036
aF1.0
asS'nodesH'
p11
(lp12
F0.007635000006987417
aF0.753400633984694
aF0.8579119165314264
aF0.2884483249645339
aF0.15537449747797033
aF1.0
asS'nodesO'
p13
(lp14
F0.0006591000911404138
aF0.053349315151433666
aF0.07030681311735112
aF0.8532378738318597
asS'weightsI'
p15
(lp16
(lp17
F-0.9769428219997601
aF7.008814087225072
aF3.3207620153940702
aF-7.411369380631032
aF9.317009584494802
aF0.7931734619825216
aa(lp18
F10.397613314438788
aF7.159786729240773
aF-4.341227847553135
aF-1.722039813771187
aF-9.79474678776461
aF0.8591465232669545
aa(lp19
F-7.859199054565033
aF-3.6074634211758725
aF2.035820960874082
aF2.2213271306793345
aF-1.7922543271102185
aF0.9252945454698219
aasS'weightsH'
p20
(lp21
(lp22
F9.035599313727209
aF-3.2737197822864106
aF-6.442732198602502
aF-8.26924617708307
aa(lp23
F1.2841694372068864
aF0.01698217399489198
aF-8.593639184928394
aF5.407675408601081
aa(lp24
F-5.554910634507248
aF1.9620706126654988
aF0.9333686595354862
aF0.9326074642044102
aa(lp25
F-1.1320049480717504
aF-5.969800892467473
aF6.0911754849907
aF-1.3831015313012427
aa(lp26
F-3.1459705232398836
aF9.521043368802138
aF-6.349925631121067
aF-6.313448188338155
aa(lp27
F-2.7795042589977266
aF-4.305150175579477
aF2.3694286051806177
aF-1.6665470101504776
aasS'hidden'
p28
I6
sS'out'
p29
I4
sb.