(i__main__
NeuralNet
p0
(dp1
S'errorsH'
p2
(lp3
F0.004861633086572307
aF-0.03207339991107341
aF-0.00988299463479145
aF0.08911038365747337
aF0.07825931578846242
asS'errorsI'
p4
(lp5
F-0.10768889720124519
aF-0.04022723310889007
asS'errorsO'
p6
(lp7
F9.482481438231313e-09
aF1.1137942432207927e-08
aF0.021899765735570148
aF-5.910665497217237e-05
asS'inp'
p8
I3
sS'nodesI'
p9
(lp10
F0.34724
aF0.32036
aF1.0
asS'nodesH'
p11
(lp12
F0.3716155655723225
aF0.8729196819415762
aF0.07445110199594411
aF0.17707471311586864
aF0.1537736598221418
aF1.0
asS'nodesO'
p13
(lp14
F9.738277547147182e-05
aF0.00010554202043373837
aF0.16162172044618037
aF0.9922820738586194
asS'weightsI'
p15
(lp16
(lp17
F-3.638412506867648
aF1.769604546821333
aF7.345848572657576
aF-1.9484057487566053
aF-1.980124255416934
aa(lp18
F3.3813900228365994
aF5.863287337187941
aF-16.810247683220044
aF-1.0888708255695894
aF-1.0571867569657682
aa(lp19
F-0.34526050533932073
aF-0.5651000791469827
aF0.31453468002276397
aF-0.5128875922803129
aF-0.680793185658582
aasS'weightsH'
p20
(lp21
(lp22
F20.454522118253657
aF-19.704115807984394
aF0.9036768337229204
aF-17.105273205723858
aa(lp23
F-11.615333430563396
aF1.26661444907385
aF-13.179895917211057
aF9.045456300084059
aa(lp24
F-8.506967579136946
aF12.627883505929256
aF-6.621998760297539
aF-26.96541848572929
aa(lp25
F-21.137345293575883
aF-10.045796332712229
aF27.96145218703158
aF14.151637600386207
aa(lp26
F-16.67752738938766
aF-11.889754011466282
aF27.495137482319343
aF12.493198874827076
aa(lp27
F0.24207742706148294
aF-0.27256473234786305
aF0.8345766159630406
aF0.8976793801704375
aasS'hidden'
p28
I6
sS'out'
p29
I4
sb.