(i__main__
NeuralNet
p0
(dp1
S'errorsH'
p2
(lp3
F-0.0
aF-0.003024741327793618
aF-0.005052599257452579
aF-0.00034647061461535414
aF-0.004662554178231235
aF-0.003990975858647723
asS'errorsI'
p4
(lp5
F-0.0
aF-7.627294260759391e-05
aF-0.0005755205446957377
asS'training'
p6
I00
sS'errorsO'
p7
(lp8
F0.005056875267457218
aF0.005299545893468321
aF0.0057481114042039795
aF0.005286202127371516
asS'inp'
p9
I3
sS'nodesI'
p10
(lp11
F1.0
aF0.34724
aF0.32036
asS'nodesH'
p12
(lp13
F1.0
aF0.30405743038044997
aF0.8204826033395044
aF0.21944667022920392
aF0.8017752979801975
aF0.8782094353772105
asS'nodesO'
p14
(lp15
F0.001264618631935364
aF0.001325325595350503
aF0.0014375444845872868
aF0.001321987444543762
asS'weightsI'
p16
(lp17
(lp18
F0.2788535969157675
aF-0.44751596921164577
aF1.1627800028000281
aF-0.884507961288591
aF1.5638416645350166
aF1.6715103021113886
aa(lp19
F0.7843591354096908
aF-0.6704240321446193
aF0.3837779831278806
aF-1.0718298849497052
aF-0.2100480496697054
aF0.44563507919147294
aa(lp20
F-0.9469280606322728
aF-0.4600029478532013
aF0.6998238064022793
aF-0.03796126707825189
aF-0.29000845193531005
aF0.46765441238717365
aasS'weightsH'
p21
(lp22
(lp23
F-2.0486693435017598
aF-2.842444703778507
aF-2.737973328818222
aF-2.1026578538782306
aa(lp24
F-0.9122289086940066
aF-1.116795143622913
aF0.1590622651030613
aF-0.8854064558133223
aa(lp25
F-2.277669768325997
aF-1.8976707956226102
aF-1.125663533018426
aF-1.1856945421102605
aa(lp26
F-0.009101301742387212
aF0.026128673421481206
aF-0.6986643015976927
aF0.3591090219466449
aa(lp27
F-1.8358642265328968
aF-1.051710188167062
aF-1.355729775666023
aF-1.2666618894208337
aa(lp28
F-1.1438911331056012
aF-1.1955686980667406
aF-1.9263387664687301
aF-2.6730702993338435
aasS'hidden'
p29
I6
sS'out'
p30
I4
sb.