(i__main__
NeuralNet
p0
(dp1
S'errorsH'
p2
(lp3
F0.0799056454141147
aF0.030749217475322534
aF-0.02473951836892602
aF0.005447832229222089
aF-0.03768047445803366
aF-0.0
asS'errorsI'
p4
(lp5
F0.0021891361846862376
aF0.10308184077798947
aF-0.0
asS'errorsO'
p6
(lp7
F-0.013742291985123228
aF-0.04707271310239088
aF-0.07190082273791991
aF0.14164061352186352
asS'inp'
p8
I3
sS'nodesI'
p9
(lp10
F0.34724
aF0.32036
aF1.0
asS'nodesH'
p11
(lp12
F0.37174571541515156
aF0.6229583343909054
aF0.5571251709263232
aF0.7259566487654286
aF0.44327536350409186
aF1.0
asS'nodesO'
p13
(lp14
F0.1253462994441205
aF0.25063236283063833
aF0.32681274759732787
aF0.2556267220312573
asS'weightsI'
p15
(lp16
(lp17
F0.8265303239970191
aF1.1106160161826872
aF0.7876627873756071
aF-0.5524766758124402
aF1.797074940875486
aF0.7931734619825216
aa(lp18
F4.152729719708634
aF1.6317902973690777
aF-1.3891202673432888
aF0.015499647827956617
aF-1.520348516274561
aF0.8591465232669545
aa(lp19
F-2.1323337114897525
aF-0.4025254445753167
aF0.39798715029191034
aF1.161746906457965
aF-0.36944613434844104
aF0.9252945454698219
aasS'weightsH'
p20
(lp21
(lp22
F3.5833972874048694
aF-1.6278507366316373
aF-3.24981107317617
aF0.5797339087095267
aa(lp23
F0.6230945672286456
aF-0.41926838064948924
aF-1.9393299144053122
aF-0.12692152776554172
aa(lp24
F-1.42605147697046
aF0.9131441093816872
aF0.343898988386873
aF-0.35733817208311286
aa(lp25
F-0.8973925657716123
aF-0.9424474903095764
aF0.5729708621911525
aF0.09807481952005156
aa(lp26
F-1.2333693942307504
aF1.9140289423194834
aF-0.24691225510905015
aF-0.678237795757041
aa(lp27
F-1.6738609933309965
aF-0.9139620760857837
aF1.177084440980641
aF-0.7404786524405724
aasS'hidden'
p28
I6
sS'out'
p29
I4
sb.