(i__main__
NeuralNet
p0
(dp1
S'errorsH'
p2
(lp3
F-0.005116884007170409
aF-0.04936830815856048
aF-0.026810341139031562
aF0.041164065669780266
aF0.06585412814064925
aF1.0
asS'errorsI'
p4
(lp5
F0.0
aF0.03282466017141822
aF-0.11287903210861101
asS'errorsO'
p6
(lp7
F0.014108916573339573
aF0.023836412103593052
aF0.0642576714959734
aF-0.1388138725251877
asS'inp'
p8
I3
sS'nodesI'
p9
(lp10
F1.0
aF0.34724
aF0.32036
asS'nodesH'
p11
(lp12
F0.6154927146186264
aF0.41972199104670743
aF0.8061110159111563
aF0.27191797031460874
aF0.3533939025659463
aF1.0
asS'nodesO'
p13
(lp14
F0.12713757816706675
aF0.16940480974947983
aF0.30380690126592325
aF0.24089709549835225
asS'weightsI'
p15
(lp16
(lp17
F0.9610837168829851
aF-0.7906990161605487
aF0.9761648025515746
aF0.24458020460658902
aF-0.10875587726926961
aa(lp18
F-1.9813806992821665
aF-2.1544457995940736
aF1.2056823065785323
aF-1.1323496818582761
aF1.6237894715780326
aa(lp19
F0.6165111178650581
aF3.795717187363093
aF0.0958553445767459
aF-2.6133574329832583
aF-3.311002224375332
aasS'weightsH'
p20
(lp21
(lp22
F-0.42795797041247663
aF-2.41513394566321
aF0.5929131663065303
aF-0.017278125297688785
aa(lp23
F2.1368184910372046
aF-4.32476623740685
aF-0.7613968567987169
aF0.5896270736090079
aa(lp24
F-1.3797920563465915
aF-0.2873622488344485
aF-1.5372712950222052
aF0.3485611033343778
aa(lp25
F-3.6913366165025163
aF0.1523795014669403
aF2.4972138274678644
aF-0.6861571803594873
aa(lp26
F-3.4001192093775536
aF2.791163875502076
aF1.2537098980825292
aF-1.3559140066310311
aa(lp27
F0.7556344933628754
aF0.912330560662562
aF-0.7664923695161401
aF-0.9803566560714583
aasS'hidden'
p28
I6
sS'out'
p29
I4
sb.