(i__main__
NeuralNet
p0
(dp1
S'errorsH'
p2
(lp3
F0.03864247094991652
aF0.07480771349905287
aF-0.04953744342506023
aF-0.012517070320080185
aF-0.03928161088734412
aF-0.0
asS'errorsI'
p4
(lp5
F-0.0047586679007549215
aF0.1246501622443224
aF-0.0
asS'errorsO'
p6
(lp7
F-0.00827089093288017
aF-0.03969864588073187
aF-0.06654098158653969
aF0.14098841223393796
asS'inp'
p8
I3
sS'nodesI'
p9
(lp10
F0.34724
aF0.32036
aF1.0
asS'nodesH'
p11
(lp12
F0.6058035294694414
aF0.41891653245062377
aF0.5061236892874933
aF0.6608690809406301
aF0.514153151852899
aF1.0
asS'nodesO'
p13
(lp14
F0.09563207323036604
aF0.2265546804303225
aF0.3106992695207013
aF0.251963870089999
asS'weightsI'
p15
(lp16
(lp17
F1.7248870011391781
aF-1.4689912368159423
aF-0.21949146250985888
aF0.3619547872204899
aF-0.4147390661527439
aF0.11299413231359212
aa(lp18
F1.8881629948027072
aF4.188799909741342
aF-2.321209128258121
aF-0.22754487280186916
aF-1.7491029604307289
aF0.8640459576040707
aa(lp19
F-0.7694086049628838
aF-1.149903611404183
aF0.8382753032233231
aF0.6128495327749721
aF0.7561794018523785
aF0.7938643307661183
aasS'weightsH'
p20
(lp21
(lp22
F0.67215250966131
aF-0.06886203121636035
aF-2.6168156972092005
aF-0.05612004380741717
aa(lp23
F3.6200849607777448
aF-3.262962730644501
aF-1.407251956392051
aF0.8168463958498757
aa(lp24
F-2.087826948678371
aF0.8101903674669867
aF1.6938418116521952
aF-0.49125278290405777
aa(lp25
F-0.9297056990225688
aF-0.24105661985527596
aF-0.36448412960973486
aF-0.6784024108727935
aa(lp26
F-1.7768599704691308
aF0.037223211501783746
aF1.2105881313226592
aF-0.6282998944365829
aa(lp27
F-1.5878107543625546
aF-0.09905452836123879
aF0.12246664020692816
aF-0.3411024931514604
aasS'hidden'
p28
I6
sS'out'
p29
I4
sb.