(i__main__
NeuralNet
p0
(dp1
S'errorsH'
p2
(lp3
F0.0017598607537660147
aF-0.019573432690992376
aF0.0587758292164062
aF-0.009495610624555654
aF0.0016850033548747108
asS'errorsI'
p4
(lp5
F0.006852277207175238
aF-0.014685120590677019
asS'errorsO'
p6
(lp7
F0.03334820108522292
aF0.06252818742556089
aF0.06970511424635163
aF-0.1366231120421775
asS'inp'
p8
I3
sS'nodesI'
p9
(lp10
F0.34724
aF0.32036
aF1.0
asS'nodesH'
p11
(lp12
F0.5449393195291098
aF0.5036946251733971
aF0.5572653546451042
aF0.2638168316135089
aF0.26239341493131685
aF1.0
asS'nodesO'
p13
(lp14
F0.20478271690892672
aF0.2985696360758339
aF0.32021968848086935
aF0.23107933340249012
asS'weightsI'
p15
(lp16
(lp17
F0.7194286845730946
aF0.9727211109817477
aF0.7461807911569437
aF-0.45357232334606284
aF-0.17602494057144322
aa(lp18
F0.8604397619993517
aF0.7571109417394974
aF-1.0765372714070267
aF-1.110082162113358
aF-0.9104980739413993
aa(lp19
F-0.34526050533932073
aF-0.5651000791469827
aF0.31453468002276397
aF-0.5128875922803129
aF-0.680793185658582
aasS'weightsH'
p20
(lp21
(lp22
F-0.9475154685651751
aF-1.1334257274411894
aF-1.782401137575543
aF-1.699951216892322
aa(lp23
F-0.38753434942086457
aF-0.3731493703496476
aF-0.9554817570160653
aF-0.1692393867169612
aa(lp24
F-0.7053915532501439
aF0.40999207094579265
aF-0.5090790143502052
aF-1.9763150504673168
aa(lp25
F-1.5908275125343385
aF0.18501597465421818
aF-0.015363637220275091
aF0.051904025642915456
aa(lp26
F-0.2963574995506728
aF-0.2267112249008746
aF0.5564530525205327
aF0.049565163844448444
aa(lp27
F0.24207742706148294
aF-0.27256473234786305
aF0.8345766159630406
aF0.8976793801704375
aasS'hidden'
p28
I6
sS'out'
p29
I4
sb.