(i__main__
NeuralNet
p0
(dp1
S'errorsH'
p2
(lp3
F0.007069971405224566
aF0.00302648952222628
aF-0.012853367619426287
aF-0.004596452655054334
aF-0.010339165292342696
aF0.0
asS'errorsI'
p4
(lp5
F-0.0002707994906547151
aF0.0018125256769442885
aF-0.0
asS'errorsO'
p6
(lp7
F-0.022619763922209858
aF-0.04623244394126946
aF-0.06984556987692367
aF0.1405303831443508
asS'inp'
p8
I3
sS'nodesI'
p9
(lp10
F0.34724
aF0.32036
aF1.0
asS'nodesH'
p11
(lp12
F0.7403309579086749
aF0.49609105594992503
aF0.5714457418491671
aF0.698664521399251
aF0.697663122850667
aF1.0
asS'nodesO'
p13
(lp14
F0.1645440807689805
aF0.24794039908977877
aF0.32064168771220614
aF0.24949706374751213
asS'weightsI'
p15
(lp16
(lp17
F0.5477263005469988
aF-0.037556086206696725
aF-0.05298753992759811
aF0.30169530232267255
aF0.4096622781492971
aF0.11299413231359212
aa(lp18
F0.9895104815522595
aF0.8464829332285914
aF0.032368045661701456
aF0.20670236509220435
aF-0.013967361402795983
aF0.8640459576040707
aa(lp19
F0.5413621662718175
aF-0.27340418981749787
aF0.29420991978154953
aF0.6694044079290103
aF0.6971532326884378
aF0.7938643307661183
aasS'weightsH'
p20
(lp21
(lp22
F-0.6769850528443296
aF-0.39979776424406743
aF-0.5529274060463835
aF-0.23923973911111018
aa(lp23
F0.3164144716727812
aF-0.5761405071444652
aF0.22333280039357573
aF0.06816670950046488
aa(lp24
F-0.09452433795743509
aF0.28013734366747617
aF0.21469310577971684
aF-0.17873530130644233
aa(lp25
F-0.4830820397969197
aF-0.5139037293514848
aF-0.3473873853117772
aF-0.561277328541599
aa(lp26
F-0.21636419261774562
aF-0.4351374673004667
aF0.1885511462111619
aF-0.41952747954666014
aa(lp27
F-0.7451015525131369
aF-0.03959576960754993
aF-0.48541344365344957
aF-0.12752303178551247
aasS'hidden'
p28
I6
sS'out'
p29
I4
sb.