(i__main__
NeuralNet
p0
(dp1
S'errorsH'
p2
(lp3
(lp4
I0
aI0
aI0
aI0
aa(lp5
I0
aI0
aI0
aI0
aa(lp6
I0
aI0
aI0
aI0
aa(lp7
I0
aI0
aI0
aI0
aa(lp8
I0
aI0
aI0
aI0
aa(lp9
I0
aI0
aI0
aI0
aasS'errorsI'
p10
(lp11
(lp12
I0
aI0
aI0
aI0
aI0
aI0
aa(lp13
I0
aI0
aI0
aI0
aI0
aI0
aa(lp14
I0
aI0
aI0
aI0
aI0
aI0
aasS'inp'
p15
I3
sS'nodesI'
p16
(lp17
F1.0
aF0.32696
aF0.74125
asS'nodesH'
p18
(lp19
F1.0
aF0.49330702054265674
aF0.11859875955035278
aF0.15744890213711163
aF0.6464758102696706
aF0.7426418809558315
asS'nodesO'
p20
(lp21
F0.967284029720965
aF0.9461917867537649
aF0.026737913875878455
aF0.8603996728788751
asS'weightsI'
p22
(lp23
(lp24
F0.6963365971173987
aF0.7841079715865744
aF0.6842382638123439
aF0.00422370599012023
aF-0.05661556563167158
aF-0.2231021310314789
aa(lp25
F0.8315925734771312
aF0.7538779931485498
aF-0.06189324034610433
aF-0.14708881628767423
aF-0.788482913714901
aF-0.8055617490871247
aa(lp26
F-0.4749457180884664
aF-0.39032575509101886
aF-0.9719368460090072
aF-0.7651222598154623
aF0.6960333912827286
aF0.932653556362147
aasS'weightsH'
p27
(lp28
(lp29
F-0.705838690314535
aF-0.05982999513619047
aF0.4363277188254442
aF0.9770263820431191
aa(lp30
F0.8463115560309229
aF-0.21067695778493167
aF-0.39320094853251253
aF-0.12566551628216183
aa(lp31
F-0.10955221010366323
aF-0.43048453510876317
aF-0.5928045996841715
aF-0.16009933725961467
aa(lp32
F0.5447485991111325
aF0.7065820478052469
aF-0.5051699230013338
aF0.2586641979340145
aa(lp33
F0.5218425813350132
aF0.22988396701566338
aF-0.5795415432093505
aF0.994786630836177
aa(lp34
F-0.19243888600499126
aF0.1798766362709383
aF0.36358304770644834
aF-0.4981322885496966
aasS'hidden'
p35
I6
sS'out'
p36
I4
sb.