(i__main__
NeuralNet
p0
(dp1
S'errorsH'
p2
(lp3
F-0.0
aF-0.0004284837858887171
aF-0.00040175907101382743
aF-7.989095212524355e-05
aF-0.00040210496164817187
aF-0.0003288786032231595
asS'errorsI'
p4
(lp5
F-0.0
aF-1.5403205135066033e-05
aF-6.610201261394956e-05
asS'training'
p6
I00
sS'errorsO'
p7
(lp8
F0.0004840428812823584
aF0.0004999865521499355
aF0.0005344758635302051
aF0.0004993428498822165
asS'inp'
p9
I3
sS'nodesI'
p10
(lp11
F1.0
aF0.34724
aF0.32036
asS'nodesH'
p12
(lp13
F1.0
aF0.41271302511507535
aF0.8933102060903362
aF0.23255605917222658
aF0.8771352798951202
aF0.9213163621118873
asS'nodesO'
p14
(lp15
F0.00012101438144071847
aF0.00012500054432150405
aF0.00013362342968779165
aF0.0001248396087025294
asS'weightsI'
p16
(lp17
(lp18
F0.2788535969157675
aF-0.051192128189154806
aF1.672482703863137
aF-0.8218971800114331
aF2.0340309807914156
aF2.078907427263569
aa(lp19
F0.7843591354096908
aF-0.5434187299313626
aF0.5448331503857365
aF-1.0521617049007077
aF-0.0565464730091575
aF0.5738526126276388
aa(lp20
F-0.9469280606322728
aF-0.35216577275087335
aF0.822159354111395
aF-0.020834505282345244
aF-0.15223273145146282
aF0.5688490041542247
aasS'weightsH'
p21
(lp22
(lp23
F-2.5846862815826337
aF-3.400357299232061
aF-3.337160840791137
aF-2.6606415259730714
aa(lp24
F-1.105876604520877
aF-1.3181171754734546
aF-0.05745773771546563
aF-1.0870503110424758
aa(lp25
F-2.735166145505349
aF-2.373919155778037
aF-1.63677550567859
aF-1.6618350874120107
aa(lp26
F-0.13266522453723284
aF-0.10240160732073739
aF-0.836808589346101
aF0.23032502954607617
aa(lp27
F-2.288217689245631
aF-1.5224478019982277
aF-1.8613477655954096
aF-1.737524364030856
aa(lp28
F-1.6251529515183147
aF-1.6965237109149323
aF-2.4641530531732405
aF-3.173982149957079
aasS'hidden'
p29
I6
sS'out'
p30
I4
sb.