(i__main__
NeuralNet
p0
(dp1
S'errorsH'
p2
(lp3
F0.0010771343117124956
aF0.00215374381409902
aF-0.003988126051528563
aF0.005359572090824853
aF-0.009125390548356711
aF-0.0
asS'errorsI'
p4
(lp5
F-0.00029225325766628037
aF0.0007537770550029714
aF0.0
asS'errorsO'
p6
(lp7
F-0.021024378782872537
aF-0.04432936245319136
aF-0.07077300140766327
aF0.14127974319847963
asS'inp'
p8
I3
sS'nodesI'
p9
(lp10
F0.34724
aF0.32036
aF1.0
asS'nodesH'
p11
(lp12
F0.7278621389578315
aF0.7775863152267098
aF0.6957947125617326
aF0.7726896464487994
aF0.4592023213377161
aF1.0
asS'nodesO'
p13
(lp14
F0.15801945428523773
aF0.24179838118652625
aF0.32342719902273337
aF0.2535770201139524
asS'weightsI'
p15
(lp16
(lp17
F0.6996965016887333
aF0.28272277758116765
aF0.37027765832879644
aF0.1526707907686583
aF0.2179455890731034
aF0.7931734619825216
aa(lp18
F0.901791749982312
aF0.8995893582871072
aF0.5546964704487275
aF0.7385076795974426
aF0.13023543180305375
aF0.8591465232669545
aa(lp19
F0.45207401819926646
aF0.865553904682036
aF0.5205862971020068
aF0.9346150562135942
aF-0.28207220479819944
aF0.9252945454698219
aasS'weightsH'
p20
(lp21
(lp22
F-0.05723694979994979
aF-0.45621108059805365
aF-0.6483422307045549
aF-0.42385091389653606
aa(lp23
F-0.5482010887889975
aF-0.15403610530389875
aF-0.8019643319398384
aF-0.4284360482177465
aa(lp24
F-0.3172650627903222
aF0.1906333726690728
aF0.19674142727076252
aF-0.008724551868126209
aa(lp25
F-0.7083676705700218
aF-0.2945821061594273
aF0.16174665332520605
aF0.11413840601108359
aa(lp26
F0.14662714165277566
aF0.37756429939598357
aF-0.11650632782582755
aF-0.16927180230852915
aa(lp27
F-0.5115402282225059
aF-0.7845988299495047
aF0.1248124531647401
aF-0.3939577732745163
aasS'hidden'
p28
I6
sS'out'
p29
I4
sb.