(i__main__
NeuralNet
p0
(dp1
S'inp'
p2
I3
sS'nodesI'
p3
(lp4
F1.0
aF1.0
aF1.0
asS'nodesH'
p5
(lp6
F1.0
aF1.0
aF1.0
aF1.0
aF1.0
aF1.0
asS'nodesO'
p7
(lp8
F1.0
aF1.0
aF1.0
aF1.0
asS'weightsI'
p9
(lp10
(lp11
F-0.006463557131958453
aF-0.2925071074569081
aF0.2403958278454963
aF-0.22344289075193524
aF0.9283606246276543
aF0.8988663317275234
aa(lp12
F-0.4941257691746168
aF-0.6896568079417602
aF-0.8068813477117636
aF0.8935808214426646
aF-0.9160347336959347
aF0.600129920268514
aa(lp13
F-0.2919511452019581
aF0.13652836726328177
aF-0.2872274631142677
aF-0.6237863715595988
aF-0.48377891708328624
aF-0.06463405945631884
aasS'weightsH'
p14
(lp15
(lp16
F-0.09614235699002904
aF0.8800795179768552
aF-0.5555025830883467
aF-0.9593165376369832
aa(lp17
F0.6486072535301917
aF-0.4092736520976352
aF0.478804824975968
aF0.6382633006731353
aa(lp18
F-0.5426820245404909
aF0.5901674780647457
aF0.44190245250075133
aF-0.06841613759326926
aa(lp19
F0.8241949785324432
aF0.019069178611171633
aF0.6533719790254029
aF0.9903433993381057
aa(lp20
F-0.028243360764697245
aF0.7738422762657191
aF0.7068042820258298
aF-0.3989284637522923
aa(lp21
F0.21323348675981224
aF-0.9191048141931697
aF0.49983241144859947
aF0.2860449426695131
aasS'hidden'
p22
I6
sS'out'
p23
I4
sb.