(i__main__
NeuralNet
p0
(dp1
S'errorsH'
p2
(lp3
F0.04424017650920088
aF-0.0001108559740787034
aF0.0010792133076244243
aF-0.015596884107586318
aF-0.022452845024779556
aF-0.0
asS'errorsI'
p4
(lp5
F-0.01979663276120978
aF0.09636264515347533
aF-0.0
asS'errorsO'
p6
(lp7
F-5.680259373792532e-07
aF-0.001825771633570678
aF-0.0003466661760451537
aF0.023526708290853886
asS'inp'
p8
I3
sS'nodesI'
p9
(lp10
F0.34724
aF0.32036
aF1.0
asS'nodesH'
p11
(lp12
F0.701827847676854
aF0.8191264350565057
aF0.9927883773211446
aF0.6225735707773353
aF0.5752675053397567
aF1.0
asS'nodesO'
p13
(lp14
F0.0007539592355832925
aF0.04369430713487115
aF0.018796465110105128
aF0.8318236373628698
asS'weightsI'
p15
(lp16
(lp17
F-3.4744957089840587
aF12.160096199019344
aF1.6826206067916596
aF4.044111427093778
aF-5.748712127535167
aF0.6464039089747448
aa(lp18
F11.496710393372737
aF4.433308996515655
aF-10.749659928917021
aF-0.1525617213810367
aF2.5046697253374153
aF0.06562358411181513
aa(lp19
F-1.6151736353901347
aF-4.132300035897576
aF7.784443426758134
aF-0.8568242522103073
aF1.4944159730164577
aF0.2981115593667776
aasS'weightsH'
p20
(lp21
(lp22
F4.2004993030951985
aF-8.775716865487059
aF-0.6238936507739515
aF8.297363268694172
aa(lp23
F2.3900858154685083
aF6.1747805109107405
aF-11.744482567377517
aF0.2763275408034069
aa(lp24
F-10.078049040579554
aF1.0250508478597349
aF5.604154315811955
aF6.571257840080823
aa(lp25
F-1.442387214861974
aF2.3269308804396527
aF-3.1009181481432506
aF-2.6850021001622193
aa(lp26
F2.8014788567238083
aF-5.885873528397097
aF2.5921752353694822
aF-4.323077167026697
aa(lp27
F-2.8034657310927558
aF-1.0658418753843022
aF0.9784531401518474
aF-6.807292404841317
aasS'hidden'
p28
I6
sS'out'
p29
I4
sb.