(i__main__
NeuralNet
p0
(dp1
S'errorsH'
p2
(lp3
F0.006981211812946495
aF0.00011609960470315863
aF1.908482696220019e-06
aF-0.0035689885148464757
aF-0.002504443659687715
aF-0.0
asS'errorsI'
p4
(lp5
F-0.00019065762541300944
aF0.016225578768688395
aF-0.0
asS'errorsO'
p6
(lp7
F-2.4359620039166527e-06
aF-0.00010811848328175002
aF-9.968735277652619e-10
aF0.002794135696320983
asS'inp'
p8
I3
sS'nodesI'
p9
(lp10
F0.34724
aF0.32036
aF1.0
asS'nodesH'
p11
(lp12
F0.7343210590115303
aF0.9302516278710565
aF0.999946267507778
aF0.6994793356559909
aF0.7005211481368895
aF1.0
asS'nodesO'
p13
(lp14
F0.0015619772320993365
aF0.01045277760272959
aF3.1573802492683034e-05
aF0.9456423993461536
asS'weightsI'
p15
(lp16
(lp17
F-2.3660548396308125
aF22.021842304335596
aF2.7932054516804414
aF5.309590925121387
aF-12.804020883372885
aF0.6464039089747448
aa(lp18
F14.580533118044471
aF7.468680515917161
aF-19.684044105798787
aF2.3626223602538077
aF7.851345467555519
aF0.06562358411181513
aa(lp19
F-2.831919009005768
aF-7.448955775083905
aF15.16750687832577
aF-1.7562088791092862
aF2.780285584262508
aF0.2981115593667776
aasS'weightsH'
p20
(lp21
(lp22
F5.311311550940915
aF-12.114762892468763
aF-3.6643898652259845
aF12.342844079288225
aa(lp23
F3.437081575896148
aF11.119247059371537
aF-20.685061830635636
aF1.0739024919506484
aa(lp24
F-13.650846155204666
aF0.6712962359017961
aF7.318573813258778
aF12.726743511109207
aa(lp25
F-0.5426254434044169
aF3.8468255953038457
aF-4.600557784006802
aF-5.927855875929889
aa(lp26
F3.140400116857979
aF-11.312947686861984
aF8.135318304536323
aF-4.7072591562419355
aa(lp27
F-1.7280480769645876
aF-1.4350753851001572
aF1.77085185984027
aF-12.487217149841944
aasS'hidden'
p28
I6
sS'out'
p29
I4
sb.