(i__main__
NeuralNet
p0
(dp1
S'errorsH'
p2
(lp3
F1.0
aF1.0
aF1.0
aF1.0
aF1.0
aF1.0
asS'errorsI'
p4
(lp5
F1.0
aF1.0
aF1.0
asS'errorsO'
p6
(lp7
F1.0
aF1.0
aF1.0
aF1.0
asS'inp'
p8
I3
sS'nodesI'
p9
(lp10
F1.0
aF1.0
aF1.0
asS'nodesH'
p11
(lp12
F1.0
aF1.0
aF1.0
aF1.0
aF1.0
aF1.0
asS'nodesO'
p13
(lp14
F1.0
aF1.0
aF1.0
aF1.0
asS'weightsI'
p15
(lp16
(lp17
F0.9610837168829851
aF-0.7906990161605487
aF0.9761648025515746
aF0.24458020460658902
aF-0.10875587726926961
aa(lp18
F-0.05437769368408629
aF-0.8893684307215171
aF0.7462086925171163
aF-0.5453044794303652
aF0.6157750731576241
aa(lp19
F0.09080437529099394
aF0.5446414172826126
aF0.10184287539911052
aF-0.5307414111597653
aF-0.39129465913307837
aasS'weightsH'
p20
(lp21
(lp22
F0.7802791170061858
aF0.0783958504950788
aF-0.6978969164334909
aF0.11065210914167789
aa(lp23
F0.05514879337507961
aF-0.9701991810455397
aF-0.4877982572411512
aF0.03657039770593151
aa(lp24
F0.3119852180741354
aF0.29475594333591215
aF-0.89016705468976
aF0.6368554524579988
aa(lp25
F-0.4770333790399326
aF0.6042305227971283
aF-0.3930100032634183
aF0.26436689047890205
aa(lp26
F0.0063259871478229535
aF0.92944196481173
aF0.7347695349450676
aF-0.18846280031157803
aa(lp27
F0.7556344933628754
aF0.912330560662562
aF-0.7664923695161401
aF-0.9803566560714583
aasS'hidden'
p28
I6
sS'out'
p29
I4
sb.