(i__main__
NeuralNet
p0
(dp1
S'errorsH'
p2
(lp3
F1.0
aF1.0
aF1.0
aF1.0
aF1.0
asS'errorsI'
p4
(lp5
F1.0
aF1.0
asS'errorsO'
p6
(lp7
F1.0
aF1.0
aF1.0
aF1.0
asS'inp'
p8
I3
sS'nodesI'
p9
(lp10
F1.0
aF1.0
aF1.0
asS'nodesH'
p11
(lp12
F1.0
aF1.0
aF1.0
aF1.0
aF1.0
aF1.0
asS'nodesO'
p13
(lp14
F1.0
aF1.0
aF1.0
aF1.0
asS'weightsI'
p15
(lp16
(lp17
F-0.2606515004907577
aF0.6924881056050003
aF-0.8302038481101057
aF-0.9309940374209378
aF-0.10530107971404967
aa(lp18
F-0.1826691525196753
aF-0.3217254634357152
aF0.7511592979064343
aF-0.9780095387459946
aF0.27001343474461903
aa(lp19
F-0.6519172739704491
aF0.8407984832333342
aF0.3349214414947539
aF-0.7486561754916468
aF0.5290531870526205
aasS'weightsH'
p20
(lp21
(lp22
F-0.986113212983764
aF0.10032174394976501
aF-0.7948959626839172
aF0.28185855136496074
aa(lp23
F0.9661596280842621
aF-0.08921627751816219
aF-0.15790281454312804
aF-0.7015483393710276
aa(lp24
F0.9614520345647615
aF-0.2590275504568953
aF0.03656287365040933
aF-0.9577339216421585
aa(lp25
F0.6277198261847967
aF0.9046506726029764
aF-0.17291461228158744
aF0.9110035728773214
aa(lp26
F-0.5136833980207258
aF0.050053716455365826
aF-0.4424711059079802
aF0.20948459673070374
aa(lp27
F-0.5947198810218852
aF-0.6666787337878572
aF-0.9705323608806551
aF-0.7493767781754299
aasS'hidden'
p28
I6
sS'out'
p29
I4
sb.