(i__main__
NeuralNet
p0
(dp1
S'errorsH'
p2
(lp3
F0.011836323428080464
aF-0.0017623078990920693
aF-0.012697663871678476
aF0.0017404810730261688
aF-0.006728556721042936
aF0.0
asS'errorsI'
p4
(lp5
F0.0010112772103868706
aF0.001939913581963514
aF-0.0
asS'errorsO'
p6
(lp7
F-0.053142384672599983
aF-0.06172421726110186
aF-0.08536797730721656
aF0.14721719145643142
asS'inp'
p8
I3
sS'nodesI'
p9
(lp10
F0.34724
aF0.32036
aF1.0
asS'nodesH'
p11
(lp12
F0.7304175007897737
aF0.5069013092263819
aF0.5785656217638446
aF0.6898900125050906
aF0.6974161558880413
aF1.0
asS'nodesO'
p13
(lp14
F0.2697677385946221
aF0.2961292758102397
aF0.36733295105558783
aF0.3643290651058035
asS'weightsI'
p15
(lp16
(lp17
F0.5147724722694971
aF0.07590806424476879
aF-0.08639433130118226
aF0.3025468847834153
aF0.462062370388678
aF0.11299413231359212
aa(lp18
F1.0017174275565188
aF0.7620460272241061
aF0.14909543178077878
aF0.1836254621123853
aF0.002835909570213377
aF0.8640459576040707
aa(lp19
F0.498529864521644
aF-0.24309595794396438
aF0.2975700645137162
aF0.6359354131953289
aF0.6728457994957635
aF0.7938643307661183
aasS'weightsH'
p20
(lp21
(lp22
F-0.6748213065604178
aF-0.30066481713443216
aF-0.35377289916561444
aF-0.14882704283299727
aa(lp23
F0.2119963187577998
aF-0.4129440874054019
aF0.4142071801827538
aF0.10794315333128512
aa(lp24
F0.060769163798874405
aF0.33800011610397135
aF0.18391733151764844
aF-0.06944972000074326
aa(lp25
F-0.3215943340053085
aF-0.49125573954338225
aF-0.31343950718242464
aF-0.43187500572542337
aa(lp26
F-0.004845278849941067
aF-0.45414432165249713
aF0.19504100966233068
aF-0.27878094261187897
aa(lp27
F-0.43668415586800474
aF0.004161339343799912
aF-0.547787746738613
aF0.07537342436367761
aasS'hidden'
p28
I6
sS'out'
p29
I4
sb.