(i__main__
NeuralNet
p0
(dp1
S'errorsH'
p2
(lp3
F6.708575518256497e-05
aF0.0006640724353378644
aF1.2565635786748628e-05
aF-0.004581095884515143
aF-0.013822818526067843
aF-0.0
asS'errorsI'
p4
(lp5
F0.006944684721875349
aF0.043393895907828654
aF-0.0
asS'errorsO'
p6
(lp7
F-1.8165544064814776e-06
aF-0.00018857728300377321
aF-1.082049046905059e-06
aF0.00810092266873549
asS'inp'
p8
I3
sS'nodesI'
p9
(lp10
F0.34724
aF0.32036
aF1.0
asS'nodesH'
p11
(lp12
F0.918820662864385
aF0.9375459815318286
aF0.9998927383330246
aF0.494453132567865
aF0.3042213365566745
aF1.0
asS'nodesO'
p13
(lp14
F0.001348705940147503
aF0.013828288023792075
aF0.0010407575947066258
aF0.9054101437844015
asS'weightsI'
p15
(lp16
(lp17
F18.419780246995202
aF-12.389099962984115
aF2.4374008333357784
aF1.9501517978223266
aF-3.366951708167897
aF0.11299413231359212
aa(lp18
F5.890682552738376
aF15.128401241362397
aF-18.628875451672677
aF-1.2000900882646544
aF-13.28264004143199
aF0.8640459576040707
aa(lp19
F-5.856785136072103
aF2.1643729013516158
aF14.261716967031939
aF-0.3154585920708203
aF4.595399978956915
aF0.7938643307661183
aasS'weightsH'
p20
(lp21
(lp22
F2.545746451715623
aF9.469439993844938
aF-18.48317565147353
aF0.33030577106883063
aa(lp23
F7.12134140955726
aF-16.289645243036066
aF9.600184000555014
aF1.024440589806387
aa(lp24
F-12.796753110752878
aF1.536742895520287
aF2.1486452109537573
aF14.49678910101275
aa(lp25
F-3.097368064993987
aF1.929025033679648
aF-2.2716095247975736
aF-2.217982738001915
aa(lp26
F-4.106520942182816
aF0.8377118130235358
aF7.4643701629692405
aF-8.041407145545937
aa(lp27
F-0.04675515250063617
aF-0.4408567357914125
aF-2.1806867078060272
aF-9.954003128057476
aasS'hidden'
p28
I6
sS'out'
p29
I4
sb.