(i__main__
NeuralNet
p0
(dp1
S'errorsH'
p2
(lp3
F-0.002449298729426819
aF0.018396832666398612
aF0.0016272952202719656
aF-0.015607934476445201
aF-0.04475395384799694
aF-0.0
asS'errorsI'
p4
(lp5
F0.0036379011316111627
aF0.10898509201672253
aF-0.0
asS'errorsO'
p6
(lp7
F-3.9858849945312227e-07
aF-0.002103254511845379
aF-0.0006197984523752816
aF0.03257589504481994
asS'inp'
p8
I3
sS'nodesI'
p9
(lp10
F0.34724
aF0.32036
aF1.0
asS'nodesH'
p11
(lp12
F0.8159094920291234
aF0.8466171091151573
aF0.9937931857278258
aF0.6214743322613034
aF0.32240369146731485
aF1.0
asS'nodesO'
p13
(lp14
F0.0006315381083938997
aF0.0469779920087055
aF0.02521569717474901
aF0.797949209381954
asS'weightsI'
p15
(lp16
(lp17
F11.648587746591799
aF-6.519403169650535
aF2.5674152267354193
aF1.580706618776116
aF-4.135961931573811
aF0.11299413231359212
aa(lp18
F3.3092044762561197
aF10.073761353208072
aF-11.244536225039461
aF-1.758068195834308
aF-7.0222659389042175
aF0.8640459576040707
aa(lp19
F-3.616416050500999
aF0.7471288684670035
aF7.78687077116802
aF0.5082317142646003
aF2.937602971221911
aF0.7938643307661183
aasS'weightsH'
p20
(lp21
(lp22
F1.5052911635764321
aF5.847996798670689
aF-11.642136825676934
aF-0.3418221718158244
aa(lp23
F5.755767976749775
aF-10.846752875548173
aF2.8411681310306722
aF3.705513102394002
aa(lp24
F-9.032155744501663
aF1.3543186859840637
aF3.22851883731232
aF8.250521453426563
aa(lp25
F-2.9130006701066544
aF1.0265627990442987
aF-1.3121607839364646
aF-1.9934040743071493
aa(lp26
F-3.97573428626758
aF-0.625692445255596
aF4.849591498085651
aF-6.235867007604876
aa(lp27
F-1.399592294421937
aF-0.3813297645401213
aF-0.5179723537463703
aF-6.422149813583705
aasS'hidden'
p28
I6
sS'out'
p29
I4
sb.