(i__main__
NeuralNet
p0
(dp1
S'errorsH'
p2
(lp3
F-0.000130408171589609
aF-0.0055291601904221945
aF0.022037826928292977
aF0.0027838884326044475
aF-0.0034310742140941366
aF-0.0
asS'errorsI'
p4
(lp5
F0.0021298894318183092
aF0.0018837023842090653
aF0.0
asS'errorsO'
p6
(lp7
F-0.0899115430859073
aF-0.06528127892440608
aF-0.08999841162175155
aF0.14547919503626067
asS'inp'
p8
I3
sS'nodesI'
p9
(lp10
F0.34724
aF0.32036
aF1.0
asS'nodesH'
p11
(lp12
F0.6549397949025441
aF0.6977956832443055
aF0.8006667964129823
aF0.47587342623487244
aF0.6171244232474643
aF1.0
asS'nodesO'
p13
(lp14
F0.3811742280862007
aF0.3068995363847271
aF0.38144034594060006
aF0.3864237603544467
asS'weightsI'
p15
(lp16
(lp17
F0.45964950934506393
aF0.7096401232687587
aF0.7332612991164899
aF0.05495606769242421
aF0.8491658824010025
aF0.8797379894212924
aa(lp18
F0.41889935191668937
aF0.8908438405144974
aF0.727517149011784
aF-0.06285365088867464
aF0.6438031046084597
aF0.18156580592682525
aa(lp19
F0.347001162283105
aF0.30434050890303016
aF0.9054776948129358
aF-0.09518792294166203
aF-0.02417222423021503
aF0.1550262176802618
aasS'weightsH'
p20
(lp21
(lp22
F0.021144029470525814
aF-0.07665269143249878
aF-0.3985350391136186
aF-0.2531102567998256
aa(lp23
F-0.40436959610989986
aF0.2541652318480625
aF0.2714600886166226
aF-0.12820139011901657
aa(lp24
F-0.20453697823466827
aF-0.6636371663208414
aF-0.5093969293856719
aF0.23271635073830782
aa(lp25
F0.0331979603402262
aF0.4631297300405414
aF0.06596506897285491
aF0.3594807249619363
aa(lp26
F0.07895671539773479
aF-0.09373927742668028
aF0.32171881806963687
aF0.12359574026702994
aa(lp27
F-0.14545617233716054
aF-0.5936536007647017
aF-0.2623983129618946
aF-0.5947761390041809
aasS'hidden'
p28
I6
sS'out'
p29
I4
sb.