(i__main__
NeuralNet
p0
(dp1
S'errorsH'
p2
(lp3
F-0.005169425738867935
aF-0.012671530055263343
aF0.062313483525408976
aF0.0018930640298098918
aF0.012773197302997022
aF-0.0
asS'errorsI'
p4
(lp5
F-0.028457539549724957
aF0.1648373045067809
aF-0.0
asS'errorsO'
p6
(lp7
F-3.13200916029204e-07
aF-0.000265278846224524
aF-0.0012196378271903644
aF0.04703922842193254
asS'inp'
p8
I3
sS'nodesI'
p9
(lp10
F0.34724
aF0.32036
aF1.0
asS'nodesH'
p11
(lp12
F0.6715206248636723
aF0.22216791552585
aF0.6723348038527819
aF0.9940177038119136
aF0.7172750874523816
aF1.0
asS'nodesO'
p13
(lp14
F0.0005598002716968132
aF0.016422795406376138
aF0.035561341659719206
aF0.7494746893469691
asS'weightsI'
p15
(lp16
(lp17
F8.211282636238492
aF9.134330602928461
aF-1.1159285900820364
aF3.4656675989382766
aF7.4975839771915895
aF0.8797379894212924
aa(lp18
F2.2563930542502795
aF-6.23825210559661
aF10.55317108906191
aF-11.362947693596231
aF4.206593789786219
aF0.18156580592682525
aa(lp19
F-2.8597055096755186
aF-2.4279457023103164
aF-2.26693253000699
aF7.549997611792185
aF-3.0185379743002145
aF0.1550262176802618
aasS'weightsH'
p20
(lp21
(lp22
F1.6077398424460947
aF3.8886687522570975
aF-7.2408123059388165
aF-0.6608510913745832
aa(lp23
F-2.18907721004969
aF7.604511274646241
aF-5.79176956338868
aF-1.665093018477177
aa(lp24
F2.6073858170630633
aF-7.38135733024732
aF-1.914624264901517
aF5.925116230937668
aa(lp25
F-10.308190872573414
aF0.9074051025653223
aF5.374820453428441
aF6.916817576011608
aa(lp26
F3.052626991808405
aF2.2957178073376983
aF-7.058874160527823
aF1.172348103266036
aa(lp27
F-1.7767436924437228
aF-5.979311635503244
aF3.856148137574544
aF-9.774227574352276
aasS'hidden'
p28
I6
sS'out'
p29
I4
sb.