(i__main__
NeuralNet
p0
(dp1
S'errorsH'
p2
(lp3
F-0.0011602470264888524
aF-0.0001647334952739293
aF0.0115944886860898
aF7.626474572223073e-06
aF0.0013156604420782392
aF-0.0
asS'errorsI'
p4
(lp5
F0.0012779195381223526
aF0.04037404256244512
aF-0.0
asS'errorsO'
p6
(lp7
F-3.1041584173029237e-06
aF-3.6958091163644006e-06
aF-1.2227675677403165e-06
aF0.007619479666209397
asS'inp'
p8
I3
sS'nodesI'
p9
(lp10
F0.34724
aF0.32036
aF1.0
asS'nodesH'
p11
(lp12
F0.7852412307980653
aF0.10347170492800663
aF0.7339812313728316
aF0.9999244683716367
aF0.8467038589430241
aF1.0
asS'nodesO'
p13
(lp14
F0.001763417708627154
aF0.0019243010880820057
aF0.0011064004414277609
aF0.9084158529816029
asS'weightsI'
p15
(lp16
(lp17
F12.341185513297487
aF16.735241907730497
aF0.5197494748435739
aF2.734292790732256
aF12.671437618192474
aF0.8797379894212924
aa(lp18
F4.230671810663389
aF-12.66464425118843
aF15.552092115315139
aF-19.29076528019698
aF6.147063359822948
aF0.18156580592682525
aa(lp19
F-4.344357624574374
aF-3.913151779296448
aF-4.146411199814047
aF14.721418205618253
aF-4.6601628989037955
aF0.1550262176802618
aasS'weightsH'
p20
(lp21
(lp22
F1.5129442456694937
aF6.878501632285978
aF-10.127000886269606
aF-0.900039570648326
aa(lp23
F-2.2208349543837267
aF13.911709662095591
aF-12.333008242944139
aF-0.22911901891732311
aa(lp24
F3.860249130183656
aF-8.788467271653627
aF-5.110786148221716
aF7.790486347236305
aa(lp25
F-12.927812233424861
aF-1.8186903522618285
aF8.427205338245274
aF13.24860744442422
aa(lp26
F3.962605109326107
aF4.599871114103891
aF-10.417668943578319
aF1.3331376759732352
aa(lp27
F-0.5586379992636225
aF-8.71762474275709
aF6.568051977927642
aF-17.066592256516063
aasS'hidden'
p28
I6
sS'out'
p29
I4
sb.