(i__main__
NeuralNet
p0
(dp1
S'errorsH'
p2
(lp3
F0.021394295187018235
aF-0.008119166115411282
aF0.06558459687770356
aF-0.06583577269571514
aF0.03912861757870394
aF-0.0
asS'errorsI'
p4
(lp5
F0.004328619463545967
aF0.11480674574199119
aF-0.0
asS'errorsO'
p6
(lp7
F-0.00988856980076199
aF-0.044897514965420285
aF-0.06264670715783413
aF0.14153716467023483
asS'inp'
p8
I3
sS'nodesI'
p9
(lp10
F0.34724
aF0.32036
aF1.0
asS'nodesH'
p11
(lp12
F0.5644938975866268
aF0.5846922311205427
aF0.5551350402399691
aF0.6078942028610592
aF0.518161099765578
aF1.0
asS'nodesO'
p13
(lp14
F0.1051197398965293
aF0.24363885285919448
aF0.2989290643613954
aF0.2550330773749986
asS'weightsI'
p15
(lp16
(lp17
F1.400695288129607
aF1.5195050585844705
aF0.20869910550556853
aF0.941181708769363
aF1.2807623302367266
aF0.8797379894212924
aa(lp18
F1.5033756992962195
aF-0.398227324629164
aF2.4580684427838557
aF-3.791314611419723
aF2.080849914679036
aF0.18156580592682525
aa(lp19
F-0.7059611429295019
aF-0.05898422120152639
aF-0.63047251052125
aF1.3181857045102843
aF-1.0338903826500911
aF0.1550262176802618
aasS'weightsH'
p20
(lp21
(lp22
F0.9357673705364762
aF-0.17841383894653712
aF-1.764782827671061
aF-0.1470849696926081
aa(lp23
F-0.6990668560130009
aF0.7473388307661436
aF-0.5985864367589894
aF-0.3021836389371873
aa(lp24
F1.2195220640172657
aF-1.7583269901116751
aF-1.7412433413939183
aF0.6432691984075989
aa(lp25
F-3.7927049471758494
aF2.0223554648026205
aF2.023970495157317
aF-0.6678826635752941
aa(lp26
F1.6499247470209544
aF-0.27084157531213127
aF-1.6423915343254034
aF0.4192325680937684
aa(lp27
F-1.4900264256448068
aF-1.593714830703403
aF1.0647536299062406
aF-0.9436680842784633
aasS'hidden'
p28
I6
sS'out'
p29
I4
sb.