(i__main__
NeuralNet
p0
(dp1
S'errorsH'
p2
(lp3
F-0.002506060654671572
aF-0.00759812904194074
aF0.015674957914141863
aF0.001795597006378426
aF7.626065161252302e-05
aF-0.0
asS'errorsI'
p4
(lp5
F0.0009646992776740701
aF0.0012592454322760717
aF0.0
asS'errorsO'
p6
(lp7
F-0.022089241654715132
aF-0.04631227153521907
aF-0.06921400464981702
aF0.1407359269033424
asS'inp'
p8
I3
sS'nodesI'
p9
(lp10
F0.34724
aF0.32036
aF1.0
asS'nodesH'
p11
(lp12
F0.6596679629779878
aF0.7146005046995978
aF0.7981687471850093
aF0.4645669397541651
aF0.6103572942008576
aF1.0
asS'nodesO'
p13
(lp14
F0.1623942211583892
aF0.24819664848451053
aF0.3187438087345753
aF0.250593960964444
asS'weightsI'
p15
(lp16
(lp17
F0.5066764323858947
aF0.7679166305200245
aF0.7089568037549617
aF0.10941999572919754
aF0.8141171623179132
aF0.8797379894212924
aa(lp18
F0.48072883024727997
aF0.7318783501472668
aF0.8206953296180913
aF-0.19609324912136336
aF0.6155118199996027
aF0.18156580592682525
aa(lp19
F0.33156374617035456
aF0.41578838836030807
aF0.8677093257169173
aF-0.11692514607361905
aF-0.031055748190220882
aF0.1550262176802618
aasS'weightsH'
p20
(lp21
(lp22
F-0.18261536527052952
aF-0.1362026134557635
aF-0.4920209078349405
aF-0.38201120576038605
aa(lp23
F-0.5521399402512055
aF0.15738997525591544
aF0.10009290902449423
aF-0.23653562044759613
aa(lp24
F-0.44837117714048264
aF-0.7415544680046763
aF-0.6272806243570495
aF0.08392942565444839
aa(lp25
F-0.24365526231750473
aF0.4546202206157602
aF0.14050318506162493
aF0.2407400660876974
aa(lp26
F-0.03373391250189102
aF-0.1401627433322083
aF0.12378324816610531
aF0.023546125144695975
aa(lp27
F-0.6408409951606577
aF-0.6793292136976576
aF-0.16860560172700292
aF-0.8229883968898228
aasS'hidden'
p28
I6
sS'out'
p29
I4
sb.